(lp0
Vaaib
p1
aVab
p2
aVabilities
p3
aVability
p4
aVable
p5
aVabroad
p6
aVabsolute
p7
aVabsolutely
p8
aVabu
p9
aVacademia
p10
aVacademic
p11
aVacademy
p12
aVacars
p13
aVacc
p14
aVaccelerate
p15
aVaccelerated
p16
aVaccept
p17
aVacceptable
p18
aVacceptance
p19
aVaccepted
p20
aVaccepting
p21
aVaccess
p22
aVaccessibility
p23
aVaccessible
p24
aVaccident
p25
aVaccidents
p26
aVaccommodate
p27
aVaccompanied
p28
aVaccompanying
p29
aVaccomplished
p30
aVaccomplishments
p31
aVaccordance
p32
aVaccording
p33
aVaccount
p34
aVaccountability
p35
aVaccountable
p36
aVaccounted
p37
aVaccounts
p38
aVaccredited
p39
aVaccs
p40
aVaccuracy
p41
aVaccurate
p42
aVaccurately
p43
aVace
p44
aVachieve
p45
aVachieved
p46
aVachievement
p47
aVachievements
p48
aVachieving
p49
aVaci
p50
aVacknowledge
p51
aVacoustic
p52
aVacquire
p53
aVacquired
p54
aVacquisition
p55
aVacross
p56
aVacs
p57
aVact
p58
aVacting
p59
aVaction
p60
aVactionable
p61
aVactions
p62
aVactive
p63
aVactively
p64
aVactivities
p65
aVactivity
p66
aVactor
p67
aVactors
p68
aVacts
p69
aVactual
p70
aVadapt
p71
aVadaptation
p72
aVadapted
p73
aVadas
p74
aVadd
p75
aVadded
p76
aVadding
p77
aVaddition
p78
aVadditional
p79
aVadditionally
p80
aVaddress
p81
aVaddressed
p82
aVaddresses
p83
aVaddressing
p84
aVadds
p85
aVadherence
p86
aVadjacent
p87
aVadjudications
p88
aVadjust
p89
aVadjusted
p90
aVadjusting
p91
aVadministration
p92
aVadministrative
p93
aVadministrator
p94
aVadmiral
p95
aVadmitting
p96
aVadopt
p97
aVadopted
p98
aVadopting
p99
aVadoption
p100
aVads
p101
aVadvance
p102
aVadvanced
p103
aVadvancement
p104
aVadvancements
p105
aVadvances
p106
aVadvancing
p107
aVadvantage
p108
aVadvantages
p109
aVadversaries
p110
aVadverse
p111
aVadvice
p112
aVadvise
p113
aVadvisor
p114
aVadvisors
p115
aVadvisory
p116
aVadvocacy
p117
aVaea
p118
aVaerial
p119
aVaero
p120
aVaerobahn
p121
aVaerodrome
p122
aVaerodromes
p123
aVaerodynamic
p124
aVaeron
p125
aVaeronautical
p126
aVaeronautics
p127
aVaeroparque
p128
aVaeroplanes
p129
aVaerospace
p130
aVaesa
p131
aVaffairs
p132
aVaffect
p133
aVaffected
p134
aVaffecting
p135
aVaffects
p136
aVaffiliated
p137
aVaffordable
p138
aVafraid
p139
aVafrica
p140
aVafrican
p141
aVaftermath
p142
aVaftks
p143
aVaftn
p144
aVag
p145
aVage
p146
aVagencies
p147
aVagency
p148
aVagenda
p149
aVagent
p150
aVagents
p151
aVaggregate
p152
aVaging
p153
aVago
p154
aVagree
p155
aVagreed
p156
aVagreement
p157
aVagreements
p158
aVahead
p159
aVahli
p160
aVahmed
p161
aVaid
p162
aVaida
p163
aVaids
p164
aVaim
p165
aVaimed
p166
aVaiming
p167
aVaims
p168
aVair
p169
aVairbooks
p170
aVairborne
p171
aVairbus
p172
aVaircom
p173
aVaircraft
p174
aVaircrafts
p175
aVaireon
p176
aVaireonsm
p177
aVairfield
p178
aVairline
p179
aVairlines
p180
aVairmen
p181
aVairpalette
p182
aVairplane
p183
aVairplanes
p184
aVairport
p185
aVairports
p186
aVairservices
p187
aVairship
p188
aVairside
p189
aVairspace
p190
aVairspaces
p191
aVairways
p192
aVairworthiness
p193
aVais
p194
aVaixm
p195
aVal
p196
aValejandro
p197
aValenia
p198
aValert
p199
aValerting
p200
aValerts
p201
aValexandre
p202
aValgorithms
p203
aVali
p204
aValign
p205
aValigned
p206
aValigning
p207
aValignment
p208
aValitalia
p209
aVallegiance
p210
aValliance
p211
aVallies
p212
aVallocation
p213
aVallow
p214
aVallowed
p215
aVallowing
p216
aVallows
p217
aValmost
p218
aValone
p219
aValong
p220
aValongside
p221
aValready
p222
aValso
p223
aValternative
p224
aValternatives
p225
aValthough
p226
aValtitude
p227
aValtran
p228
aValtys
p229
aValways
p230
aVaman
p231
aVambitious
p232
aVamc
p233
aVamerica
p234
aVamerican
p235
aVamericans
p236
aVamericas
p237
aVamhs
p238
aVamong
p239
aVamongst
p240
aVamount
p241
aVamounted
p242
aVamounts
p243
aVamsterdam
p244
aVanalysed
p245
aVanalyses
p246
aVanalysis
p247
aVanalytics
p248
aVanalyze
p249
aVanders
p250
aVandreas
p251
aVandrew
p252
aVangeles
p253
aVangus
p254
aVannex
p255
aVanniversary
p256
aVannounce
p257
aVannounced
p258
aVannouncement
p259
aVannounces
p260
aVannouncing
p261
aVannual
p262
aVannually
p263
aVanother
p264
aVans
p265
aVansa
p266
aVansp
p267
aVansps
p268
aVanswer
p269
aVantenna
p270
aVantennas
p271
aVanthem
p272
aVanthony
p273
aVanticipate
p274
aVanticipated
p275
aVantonio
p276
aVanyone
p277
aVanything
p278
aVanywhere
p279
aVapart
p280
aVapo
p281
aVapp
p282
aVappear
p283
aVapple
p284
aVapplicable
p285
aVapplicants
p286
aVapplication
p287
aVapplications
p288
aVapplied
p289
aVapplies
p290
aVapply
p291
aVapplying
p292
aVappointed
p293
aVappointment
p294
aVappreciate
p295
aVappreciation
p296
aVapproach
p297
aVapproaches
p298
aVapproaching
p299
aVappropriate
p300
aVappropriations
p301
aVapproval
p302
aVapproved
p303
aVapproximately
p304
aVapps
p305
aVapril
p306
aVaquino
p307
aVarab
p308
aVarabia
p309
aVarabian
p310
aVarchitecture
p311
aVarctic
p312
aVardronis
p313
aVarea
p314
aVareas
p315
aVariadna
p316
aVarlanda
p317
aVarmed
p318
aVarmy
p319
aVaround
p320
aVarrangements
p321
aVarray
p322
aVarrested
p323
aVarrival
p324
aVarrivals
p325
aVarrived
p326
aVarriving
p327
aVart
p328
aVartas
p329
aVartesia
p330
aVarticle
p331
aVartifacts
p332
aVarts
p333
aVaruba
p334
aVasd
p335
aVasi
p336
aVasia
p337
aVasian
p338
aVask
p339
aVasked
p340
aVasks
p341
aVasktsa
p342
aVaspect
p343
aVaspects
p344
aVaspire
p345
aVaspiring
p346
aVasr
p347
aVassc
p348
aVassembly
p349
aVassess
p350
aVassessed
p351
aVassessing
p352
aVassessment
p353
aVassessments
p354
aVasset
p355
aVassets
p356
aVassigned
p357
aVassist
p358
aVassistance
p359
aVassistant
p360
aVassisted
p361
aVassisting
p362
aVassociate
p363
aVassociated
p364
aVassociates
p365
aVassociation
p366
aVassociations
p367
aVassume
p368
aVassurance
p369
aVasterix
p370
aVasylum
p371
aVatag
p372
aVatat
p373
aVataturk
p374
aVatc
p375
aVatca
p376
aVatcloud
p377
aVatco
p378
aVatcoach
p379
aVatcos
p380
aVatcs
p381
aVatech
p382
aVatfcm
p383
aVatfm
p384
aVathar
p385
aVathletes
p386
aVatis
p387
aVatlanta
p388
aVatlantic
p389
aVatm
p390
aVatmosphere
p391
aVatn
p392
aVato
p393
aVats
p394
aVatsep
p395
aVattached
p396
aVattack
p397
aVattacks
p398
aVattempt
p399
aVattempted
p400
aVattend
p401
aVattended
p402
aVattendees
p403
aVattending
p404
aVattention
p405
aVattorney
p406
aVattower
p407
aVattract
p408
aVattracted
p409
aVattracting
p410
aVattractive
p411
aVattributable
p412
aVattributed
p413
aVattributes
p414
aVatvoice
p415
aVatw
p416
aVaudience
p417
aVaudio
p418
aVaugmentation
p419
aVaugust
p420
aVaustralia
p421
aVaustralian
p422
aVaustria
p423
aVaustrian
p424
aVaustro
p425
aVauthentication
p426
aVauthorisation
p427
aVauthorities
p428
aVauthority
p429
aVauthorization
p430
aVauthorized
p431
aVautomated
p432
aVautomatic
p433
aVautomatically
p434
aVautomation
p435
aVautumn
p436
aVavailability
p437
aVavailable
p438
aVaveillant
p439
aVaverage
p440
aVaviation
p441
aVavibit
p442
aVavinor
p443
aVavionics
p444
aVaviovision
p445
aVavoid
p446
aVavoidance
p447
aVavsec
p448
aVavtech
p449
aVaward
p450
aVawarded
p451
aVawards
p452
aVaware
p453
aVawareness
p454
aVaway
p455
aVawpa
p456
aVaxis
p457
aVbabcock
p458
aVback
p459
aVbackdrop
p460
aVbackground
p461
aVbacklight
p462
aVbacks
p463
aVbackup
p464
aVbad
p465
aVbae
p466
aVbag
p467
aVbaggage
p468
aVbags
p469
aVbahler
p470
aVbalance
p471
aVbalanced
p472
aVbalancing
p473
aVball
p474
aVbaltic
p475
aVbaltimore
p476
aVban
p477
aVband
p478
aVbandwidth
p479
aVbank
p480
aVbanking
p481
aVbarcelona
p482
aVbarriers
p483
aVbarry
p484
aVbase
p485
aVbaseball
p486
aVbased
p487
aVbasel
p488
aVbaseline
p489
aVbases
p490
aVbasic
p491
aVbasically
p492
aVbasis
p493
aVbatch
p494
aVbaton
p495
aVbattery
p496
aVbay
p497
aVbayanat
p498
aVbcon
p499
aVbeach
p500
aVbeacon
p501
aVbeam
p502
aVbeams
p503
aVbears
p504
aVbecame
p505
aVbecome
p506
aVbecomes
p507
aVbecoming
p508
aVbegan
p509
aVbegin
p510
aVbeginning
p511
aVbegins
p512
aVbegun
p513
aVbehalf
p514
aVbehavior
p515
aVbehind
p516
aVbeijing
p517
aVbelgian
p518
aVbelgium
p519
aVbelgocontrol
p520
aVbelgrade
p521
aVbelief
p522
aVbelieve
p523
aVbelieves
p524
aVbell
p525
aVbelt
p526
aVbelts
p527
aVben
p528
aVbenchmark
p529
aVbenchmarking
p530
aVbeneficial
p531
aVbeneficiaries
p532
aVbenefit
p533
aVbenefited
p534
aVbenefiting
p535
aVbenefits
p536
aVberlin
p537
aVbernardino
p538
aVbesides
p539
aVbespoke
p540
aVbest
p541
aVbetter
p542
aVbeyond
p543
aVbhansa
p544
aVbig
p545
aVbigger
p546
aVbiggest
p547
aVbilateral
p548
aVbill
p549
aVbillion
p550
aVbillions
p551
aVbin
p552
aVbiofuel
p553
aVbirds
p554
aVbirmingham
p555
aVbirth
p556
aVbirthday
p557
aVbismarck
p558
aVbit
p559
aVblack
p560
aVblades
p561
aVblast
p562
aVbleeding
p563
aVbless
p564
aVblock
p565
aVblocks
p566
aVblog
p567
aVblue
p568
aVbluecampaign
p569
aVboard
p570
aVboarding
p571
aVboasts
p572
aVboat
p573
aVbod
p574
aVbodies
p575
aVbody
p576
aVboeing
p577
aVbolster
p578
aVbomb
p579
aVbombardier
p580
aVbond
p581
aVbook
p582
aVboost
p583
aVboosting
p584
aVbooth
p585
aVborder
p586
aVborders
p587
aVborealis
p588
aVborn
p589
aVbosnia
p590
aVboston
p591
aVbottom
p592
aVboundaries
p593
aVbournemouth
p594
aVbowl
p595
aVbox
p596
aVbranch
p597
aVbrand
p598
aVbratton
p599
aVbrazil
p600
aVbrazilian
p601
aVbreak
p602
aVbreaking
p603
aVbreakthrough
p604
aVbremen
p605
aVbrennan
p606
aVbrenner
p607
aVbrest
p608
aVbretagne
p609
aVbrexit
p610
aVbridge
p611
aVbridges
p612
aVbriefing
p613
aVbriefings
p614
aVbrigadeiro
p615
aVbrightness
p616
aVbring
p617
aVbringing
p618
aVbrings
p619
aVbritish
p620
aVbroad
p621
aVbroadband
p622
aVbroadcast
p623
aVbroader
p624
aVbroadly
p625
aVbroken
p626
aVbrought
p627
aVbrussels
p628
aVbudapest
p629
aVbudget
p630
aVbuild
p631
aVbuilder
p632
aVbuilding
p633
aVbuildings
p634
aVbuilds
p635
aVbuilt
p636
aVbulc
p637
aVbulgaria
p638
aVbulletin
p639
aVburden
p640
aVbureau
p641
aVburn
p642
aVburning
p643
aVbusiest
p644
aVbusiness
p645
aVbusinesses
p646
aVbusy
p647
aVbutton
p648
aVcaa
p649
aVcaas
p650
aVcabin
p651
aVcabinet
p652
aVcable
p653
aVcac
p654
aVcadas
p655
aVcadets
p656
aVcagr
p657
aVcairo
p658
aVcalculate
p659
aVcalculations
p660
aVcalibration
p661
aVcalifornia
p662
aVcall
p663
aVcalled
p664
aVcalling
p665
aVcalls
p666
aVcambodia
p667
aVcame
p668
aVcamera
p669
aVcameras
p670
aVcamp
p671
aVcampaign
p672
aVcampus
p673
aVcanada
p674
aVcanadian
p675
aVcanary
p676
aVcanberra
p677
aVcandidates
p678
aVcandlelight
p679
aVcani
p680
aVcanine
p681
aVcannot
p682
aVcanso
p683
aVcap
p684
aVcapabilities
p685
aVcapability
p686
aVcapable
p687
aVcapacities
p688
aVcapacity
p689
aVcapezzuto
p690
aVcapital
p691
aVcapitol
p692
aVcaptain
p693
aVcapture
p694
aVcar
p695
aVcarbon
p696
aVcard
p697
aVcards
p698
aVcare
p699
aVcareer
p700
aVcareers
p701
aVcarefully
p702
aVcargo
p703
aVcaribbean
p704
aVcarlos
p705
aVcarolina
p706
aVcarp
p707
aVcarried
p708
aVcarrier
p709
aVcarriers
p710
aVcarry
p711
aVcarrying
p712
aVcase
p713
aVcases
p714
aVcash
p715
aVcast
p716
aVcat
p717
aVcatalyst
p718
aVcatastrophic
p719
aVcategories
p720
aVcategory
p721
aVcater
p722
aVcaucus
p723
aVcaug
p724
aVcause
p725
aVcaused
p726
aVcauses
p727
aVcausing
p728
aVcbp
p729
aVcc
p730
aVcdg
p731
aVcdm
p732
aVcef
p733
aVcelebrate
p734
aVcelebrated
p735
aVcelebrating
p736
aVcengiz
p737
aVcent
p738
aVcenter
p739
aVcenters
p740
aVcentral
p741
aVcentralised
p742
aVcentrally
p743
aVcentre
p744
aVcentres
p745
aVcentury
p746
aVceo
p747
aVceos
p748
aVceremonies
p749
aVceremony
p750
aVcert
p751
aVcertain
p752
aVcertificate
p753
aVcertification
p754
aVcertified
p755
aVcfp
p756
aVch
p757
aVchain
p758
aVchair
p759
aVchairman
p760
aVchallenge
p761
aVchallenges
p762
aVchallenging
p763
aVchance
p764
aVchange
p765
aVchanged
p766
aVchanges
p767
aVchangi
p768
aVchanging
p769
aVchannel
p770
aVchannels
p771
aVchapman
p772
aVchapter
p773
aVcharacteristics
p774
aVcharge
p775
aVcharges
p776
aVcharging
p777
aVcharleroi
p778
aVcharles
p779
aVcharts
p780
aVchat
p781
aVchci
p782
aVcheck
p783
aVchecked
p784
aVchecking
p785
aVcheckpoint
p786
aVchefs
p787
aVcheyenne
p788
aVchicago
p789
aVchief
p790
aVchild
p791
aVchildren
p792
aVchina
p793
aVchinese
p794
aVchip
p795
aVchoice
p796
aVchoices
p797
aVchoose
p798
aVchosen
p799
aVchristian
p800
aVcircling
p801
aVcities
p802
aVcitizen
p803
aVcitizens
p804
aVcitizenship
p805
aVcity
p806
aVcivil
p807
aVcivile
p808
aVcivilian
p809
aVclaims
p810
aVclancy
p811
aVclarity
p812
aVclass
p813
aVclassic
p814
aVclassified
p815
aVclean
p816
aVclear
p817
aVclearance
p818
aVclearly
p819
aVcleveland
p820
aVclick
p821
aVclient
p822
aVclients
p823
aVclimate
p824
aVclimbed
p825
aVclose
p826
aVclosed
p827
aVclosely
p828
aVcloser
p829
aVclosing
p830
aVcloud
p831
aVclub
p832
aVcluster
p833
aVcmt
p834
aVcns
p835
aVco
p836
aVcoa
p837
aVcoal
p838
aVcoast
p839
aVcocaine
p840
aVcocesna
p841
aVcockpit
p842
aVcode
p843
aVcoe
p844
aVcoflight
p845
aVcohesion
p846
aVcollaborate
p847
aVcollaboration
p848
aVcollaborations
p849
aVcollaborative
p850
aVcollaboratively
p851
aVcolleagues
p852
aVcollect
p853
aVcollected
p854
aVcollecting
p855
aVcollection
p856
aVcollective
p857
aVcollege
p858
aVcollins
p859
aVcollision
p860
aVcolombia
p861
aVcolombian
p862
aVcolor
p863
aVcolors
p864
aVcolumbia
p865
aVcom
p866
aVcombat
p867
aVcombating
p868
aVcombination
p869
aVcombine
p870
aVcombined
p871
aVcombines
p872
aVcombining
p873
aVcombitech
p874
aVcome
p875
aVcomes
p876
aVcomfort
p877
aVcoming
p878
aVcomm
p879
aVcommand
p880
aVcommander
p881
aVcommemorated
p882
aVcomment
p883
aVcommented
p884
aVcomments
p885
aVcommerce
p886
aVcommercial
p887
aVcommission
p888
aVcommissioned
p889
aVcommissioner
p890
aVcommissioning
p891
aVcommit
p892
aVcommitment
p893
aVcommitted
p894
aVcommittee
p895
aVcommon
p896
aVcommonly
p897
aVcommunicate
p898
aVcommunication
p899
aVcommunications
p900
aVcommunities
p901
aVcommunity
p902
aVcompanies
p903
aVcompany
p904
aVcompared
p905
aVcomparison
p906
aVcompatible
p907
aVcompete
p908
aVcompetencies
p909
aVcompetition
p910
aVcompetitive
p911
aVcompetitiveness
p912
aVcomplement
p913
aVcomplementary
p914
aVcomplete
p915
aVcompleted
p916
aVcompletely
p917
aVcompleting
p918
aVcompletion
p919
aVcomplex
p920
aVcomplexity
p921
aVcompliance
p922
aVcompliant
p923
aVcomplies
p924
aVcomply
p925
aVcomponent
p926
aVcomponents
p927
aVcomposed
p928
aVcomposite
p929
aVcomprehensive
p930
aVcompressed
p931
aVcompression
p932
aVcomprised
p933
aVcomprises
p934
aVcomprising
p935
aVcompromising
p936
aVcomputer
p937
aVcomputers
p938
aVcomsatbw
p939
aVcomsoft
p940
aVconcept
p941
aVconception
p942
aVconcepts
p943
aVconcern
p944
aVconcerned
p945
aVconcerning
p946
aVconcerns
p947
aVconcluded
p948
aVconclusion
p949
aVconclusions
p950
aVconcrete
p951
aVconditions
p952
aVconduct
p953
aVconducted
p954
aVconducting
p955
aVconference
p956
aVconfidence
p957
aVconfident
p958
aVconfigurable
p959
aVconfiguration
p960
aVconfigurations
p961
aVconfigured
p962
aVconfirm
p963
aVconfirmation
p964
aVconfirmed
p965
aVconfirms
p966
aVconflict
p967
aVconfront
p968
aVcongested
p969
aVcongestion
p970
aVcongratulations
p971
aVcongress
p972
aVcongressional
p973
aVconjunction
p974
aVconnect
p975
aVconnected
p976
aVconnecting
p977
aVconnection
p978
aVconnections
p979
aVconnectivity
p980
aVconsciousness
p981
aVconsecutive
p982
aVconsensus
p983
aVconsequences
p984
aVconsider
p985
aVconsiderable
p986
aVconsiderably
p987
aVconsideration
p988
aVconsidered
p989
aVconsidering
p990
aVconsist
p991
aVconsistent
p992
aVconsistently
p993
aVconsists
p994
aVconsolidated
p995
aVconsortium
p996
aVconstant
p997
aVconstantly
p998
aVconstellation
p999
aVconstitution
p1000
aVconstraint
p1001
aVconstraints
p1002
aVconstruction
p1003
aVconsultancy
p1004
aVconsultation
p1005
aVconsulting
p1006
aVconsumer
p1007
aVconsumers
p1008
aVconsuming
p1009
aVconsumption
p1010
aVcontact
p1011
aVcontain
p1012
aVcontainers
p1013
aVcontains
p1014
aVcontent
p1015
aVcontext
p1016
aVcontinent
p1017
aVcontinental
p1018
aVcontinents
p1019
aVcontingency
p1020
aVcontinually
p1021
aVcontinuation
p1022
aVcontinue
p1023
aVcontinued
p1024
aVcontinues
p1025
aVcontinuing
p1026
aVcontinuity
p1027
aVcontinuous
p1028
aVcontinuously
p1029
aVcontraband
p1030
aVcontract
p1031
aVcontracted
p1032
aVcontracts
p1033
aVcontrary
p1034
aVcontrast
p1035
aVcontribute
p1036
aVcontributed
p1037
aVcontributes
p1038
aVcontributing
p1039
aVcontribution
p1040
aVcontributions
p1041
aVcontributor
p1042
aVcontrol
p1043
aVcontrolled
p1044
aVcontroller
p1045
aVcontrollers
p1046
aVcontrolling
p1047
aVcontrols
p1048
aVconvenience
p1049
aVconvenings
p1050
aVconvention
p1051
aVconventional
p1052
aVconversation
p1053
aVconversations
p1054
aVconversion
p1055
aVconvert
p1056
aVcoo
p1057
aVcook
p1058
aVcooke
p1059
aVcooperate
p1060
aVcooperation
p1061
aVcooperative
p1062
aVcoordinate
p1063
aVcoordinated
p1064
aVcoordinates
p1065
aVcoordinating
p1066
aVcoordination
p1067
aVcoordinator
p1068
aVcop
p1069
aVcope
p1070
aVcopenhagen
p1071
aVcore
p1072
aVcork
p1073
aVcornerstone
p1074
aVcorpac
p1075
aVcorporate
p1076
aVcorporation
p1077
aVcorps
p1078
aVcorrect
p1079
aVcorresponding
p1080
aVcorresponds
p1081
aVcorridor
p1082
aVcorsia
p1083
aVcost
p1084
aVcosta
p1085
aVcosting
p1086
aVcostly
p1087
aVcosts
p1088
aVcots
p1089
aVcould
p1090
aVcouncil
p1091
aVcounsel
p1092
aVcounter
p1093
aVcountering
p1094
aVcounterparts
p1095
aVcounterterrorism
p1096
aVcounties
p1097
aVcountless
p1098
aVcountries
p1099
aVcountry
p1100
aVcounty
p1101
aVcouple
p1102
aVcoupled
p1103
aVcourse
p1104
aVcourses
p1105
aVcourt
p1106
aVcourtesy
p1107
aVcover
p1108
aVcoverage
p1109
aVcovered
p1110
aVcovering
p1111
aVcovers
p1112
aVcoveted
p1113
aVcpdlc
p1114
aVcr
p1115
aVcreate
p1116
aVcreated
p1117
aVcreates
p1118
aVcreating
p1119
aVcreation
p1120
aVcredit
p1121
aVcrew
p1122
aVcrews
p1123
aVcrime
p1124
aVcrimes
p1125
aVcriminal
p1126
aVcriminals
p1127
aVcrisis
p1128
aVcriteria
p1129
aVcritical
p1130
aVcroatia
p1131
aVcross
p1132
aVcrossing
p1133
aVcrowds
p1134
aVcrown
p1135
aVcrucial
p1136
aVcs
p1137
aVcsps
p1138
aVculinary
p1139
aVcultural
p1140
aVculture
p1141
aVcurrent
p1142
aVcurrently
p1143
aVcurriculum
p1144
aVcustomer
p1145
aVcustomers
p1146
aVcustomized
p1147
aVcustoms
p1148
aVcut
p1149
aVcutter
p1150
aVcutting
p1151
aVcve
p1152
aVcwp
p1153
aVcyber
p1154
aVcybercrime
p1155
aVcybersecurity
p1156
aVcyberspace
p1157
aVcycle
p1158
aVczech
p1159
aVdaa
p1160
aVdaily
p1161
aVdakota
p1162
aVdallas
p1163
aVdamage
p1164
aVdamages
p1165
aVdan
p1166
aVdangerous
p1167
aVdaniel
p1168
aVdanish
p1169
aVdans
p1170
aVdassault
p1171
aVdata
p1172
aVdatabase
p1173
aVdatalink
p1174
aVdate
p1175
aVdavid
p1176
aVday
p1177
aVdays
p1178
aVdc
p1179
aVde
p1180
aVdea
p1181
aVdeadline
p1182
aVdeadlines
p1183
aVdeal
p1184
aVdeals
p1185
aVdearborn
p1186
aVdeath
p1187
aVdebate
p1188
aVdebates
p1189
aVdebris
p1190
aVdecade
p1191
aVdecades
p1192
aVdecea
p1193
aVdecember
p1194
aVdecided
p1195
aVdecision
p1196
aVdecisions
p1197
aVdeck
p1198
aVdeclaration
p1199
aVdeclared
p1200
aVdecline
p1201
aVdeclined
p1202
aVdecoded
p1203
aVdecrease
p1204
aVdecreased
p1205
aVdedicated
p1206
aVdedication
p1207
aVdeep
p1208
aVdeepen
p1209
aVdeeply
p1210
aVdefence
p1211
aVdefend
p1212
aVdefense
p1213
aVdeferred
p1214
aVdefine
p1215
aVdefined
p1216
aVdefines
p1217
aVdefinition
p1218
aVdegree
p1219
aVdegrees
p1220
aVdelaware
p1221
aVdelay
p1222
aVdelays
p1223
aVdelegates
p1224
aVdelegation
p1225
aVdelicious
p1226
aVdelighted
p1227
aVdeliver
p1228
aVdelivered
p1229
aVdeliveries
p1230
aVdelivering
p1231
aVdelivers
p1232
aVdelivery
p1233
aVdelta
p1234
aVdemand
p1235
aVdemanding
p1236
aVdemands
p1237
aVdemocracy
p1238
aVdemonstrate
p1239
aVdemonstrated
p1240
aVdemonstrates
p1241
aVdemonstrating
p1242
aVdemonstration
p1243
aVdemonstrations
p1244
aVdemonstrator
p1245
aVdemonstrators
p1246
aVdenmark
p1247
aVdensity
p1248
aVdenver
p1249
aVdeparting
p1250
aVdepartment
p1251
aVdepartments
p1252
aVdeparture
p1253
aVdepartures
p1254
aVdependent
p1255
aVdepending
p1256
aVdepends
p1257
aVdeploy
p1258
aVdeployed
p1259
aVdeploying
p1260
aVdeployment
p1261
aVdeployments
p1262
aVdepth
p1263
aVdeputy
p1264
aVderiving
p1265
aVdescending
p1266
aVdescent
p1267
aVdeserve
p1268
aVdesign
p1269
aVdesignate
p1270
aVdesignated
p1271
aVdesigned
p1272
aVdesigning
p1273
aVdesigns
p1274
aVdesire
p1275
aVdesired
p1276
aVdesktop
p1277
aVdespite
p1278
aVdestination
p1279
aVdestinations
p1280
aVdetailed
p1281
aVdetails
p1282
aVdetect
p1283
aVdetected
p1284
aVdetecting
p1285
aVdetection
p1286
aVdetectors
p1287
aVdetects
p1288
aVdeter
p1289
aVdeterioration
p1290
aVdetermination
p1291
aVdetermine
p1292
aVdetermined
p1293
aVdetermining
p1294
aVdetonation
p1295
aVdeutsche
p1296
aVdevastating
p1297
aVdevelop
p1298
aVdeveloped
p1299
aVdevelopers
p1300
aVdeveloping
p1301
aVdevelopment
p1302
aVdevelopments
p1303
aVdevelops
p1304
aVdeviation
p1305
aVdevice
p1306
aVdevices
p1307
aVdevotion
p1308
aVdeyo
p1309
aVdfs
p1310
aVdfw
p1311
aVdg
p1312
aVdgcta
p1313
aVdhabi
p1314
aVdhmi
p1315
aVdhs
p1316
aVdi
p1317
aVdialogue
p1318
aVdickinson
p1319
aVdied
p1320
aVdieter
p1321
aVdifference
p1322
aVdifferences
p1323
aVdifferent
p1324
aVdiffering
p1325
aVdifficult
p1326
aVdigit
p1327
aVdigital
p1328
aVdigitalisation
p1329
aVdignity
p1330
aVdimensional
p1331
aVdimensions
p1332
aVdinner
p1333
aVdirect
p1334
aVdirected
p1335
aVdirection
p1336
aVdirective
p1337
aVdirectly
p1338
aVdirector
p1339
aVdirectorate
p1340
aVdirectors
p1341
aVdirects
p1342
aVdirk
p1343
aVdisaster
p1344
aVdisasters
p1345
aVdisclosure
p1346
aVdisco
p1347
aVdiscover
p1348
aVdiscovered
p1349
aVdiscrimination
p1350
aVdiscuss
p1351
aVdiscussed
p1352
aVdiscussion
p1353
aVdiscussions
p1354
aVdisplay
p1355
aVdisplayed
p1356
aVdisplaying
p1357
aVdisplays
p1358
aVdisrupt
p1359
aVdisruption
p1360
aVdisruptive
p1361
aVdistance
p1362
aVdistances
p1363
aVdistinguished
p1364
aVdistress
p1365
aVdistributed
p1366
aVdistribution
p1367
aVdistrict
p1368
aVdiverse
p1369
aVdiversity
p1370
aVdividend
p1371
aVdivision
p1372
aVdivos
p1373
aVdk
p1374
aVdl
p1375
aVdls
p1376
aVdme
p1377
aVdndo
p1378
aVdoc
p1379
aVdocument
p1380
aVdocumentation
p1381
aVdod
p1382
aVdoe
p1383
aVdog
p1384
aVdogs
p1385
aVdoj
p1386
aVdollar
p1387
aVdollars
p1388
aVdomain
p1389
aVdomains
p1390
aVdomestic
p1391
aVdone
p1392
aVdoor
p1393
aVdoors
p1394
aVdorst
p1395
aVdot
p1396
aVdouble
p1397
aVdoubling
p1398
aVdownload
p1399
aVdownward
p1400
aVdp
p1401
aVdr
p1402
aVdraft
p1403
aVdramatically
p1404
aVdraw
p1405
aVdream
p1406
aVdreams
p1407
aVdrive
p1408
aVdriven
p1409
aVdriver
p1410
aVdrivers
p1411
aVdriving
p1412
aVdrone
p1413
aVdroneradar
p1414
aVdrones
p1415
aVdrought
p1416
aVdrug
p1417
aVdsna
p1418
aVdual
p1419
aVdubai
p1420
aVdublin
p1421
aVdue
p1422
aVduke
p1423
aVdulles
p1424
aVdutch
p1425
aVduties
p1426
aVduty
p1427
aVdvor
p1428
aVdwc
p1429
aVdxb
p1430
aVdynamic
p1431
aVead
p1432
aVeagdcs
p1433
aVeamonn
p1434
aVean
p1435
aVeans
p1436
aVearlier
p1437
aVearly
p1438
aVearning
p1439
aVearnings
p1440
aVearth
p1441
aVeasa
p1442
aVeascg
p1443
aVease
p1444
aVeasier
p1445
aVeasily
p1446
aVeast
p1447
aVeastern
p1448
aVeasy
p1449
aVeasyjet
p1450
aVeatm
p1451
aVebit
p1452
aVebs
p1453
aVec
p1454
aVeca
p1455
aVecac
p1456
aVeccas
p1457
aVechostar
p1458
aVeco
p1459
aVeconomic
p1460
aVeconomically
p1461
aVeconomies
p1462
aVeconomy
p1463
aVecosystem
p1464
aVecs
p1465
aVed
p1466
aVedf
p1467
aVedge
p1468
aVedition
p1469
aVeditor
p1470
aVeducate
p1471
aVeducation
p1472
aVeducational
p1473
aVeducators
p1474
aVedwards
p1475
aVefb
p1476
aVeffect
p1477
aVeffective
p1478
aVeffectively
p1479
aVeffectiveness
p1480
aVeffects
p1481
aVefficiencies
p1482
aVefficiency
p1483
aVefficient
p1484
aVefficiently
p1485
aVeffort
p1486
aVefforts
p1487
aVefsi
p1488
aVegnos
p1489
aVegypt
p1490
aVegyptian
p1491
aVeight
p1492
aVeinstein
p1493
aVeither
p1494
aVeizo
p1495
aVel
p1496
aVelaborated
p1497
aVelaine
p1498
aVelected
p1499
aVelectric
p1500
aVelectronic
p1501
aVelectronically
p1502
aVelectronics
p1503
aVelement
p1504
aVelements
p1505
aVeligibility
p1506
aVeligible
p1507
aVeliminate
p1508
aVeliminating
p1509
aVelizabeth
p1510
aVellis
p1511
aVelse
p1512
aVelsewhere
p1513
aVelwell
p1514
aVemail
p1515
aVemails
p1516
aVembassy
p1517
aVembedded
p1518
aVembrace
p1519
aVembracing
p1520
aVembraer
p1521
aVembry
p1522
aVemergencies
p1523
aVemergency
p1524
aVemerging
p1525
aVemirates
p1526
aVemission
p1527
aVemissions
p1528
aVemma
p1529
aVemotional
p1530
aVemphasised
p1531
aVemphasizes
p1532
aVemployed
p1533
aVemployee
p1534
aVemployees
p1535
aVemploying
p1536
aVemployment
p1537
aVemploys
p1538
aVempower
p1539
aVems
p1540
aVen
p1541
aVenable
p1542
aVenabled
p1543
aVenabler
p1544
aVenables
p1545
aVenabling
p1546
aVenaire
p1547
aVenav
p1548
aVencounter
p1549
aVencounters
p1550
aVencourage
p1551
aVencouraged
p1552
aVencourages
p1553
aVencouraging
p1554
aVencrypted
p1555
aVend
p1556
aVended
p1557
aVending
p1558
aVendorsed
p1559
aVenergy
p1560
aVenforce
p1561
aVenforcement
p1562
aVengage
p1563
aVengaged
p1564
aVengagement
p1565
aVengagements
p1566
aVengaging
p1567
aVengine
p1568
aVengineering
p1569
aVengineers
p1570
aVengines
p1571
aVenglish
p1572
aVenhance
p1573
aVenhanced
p1574
aVenhancement
p1575
aVenhancements
p1576
aVenhances
p1577
aVenhancing
p1578
aVenjoy
p1579
aVenjoyed
p1580
aVenna
p1581
aVenough
p1582
aVenrique
p1583
aVenrolled
p1584
aVenroute
p1585
aVensure
p1586
aVensured
p1587
aVensures
p1588
aVensuring
p1589
aVenter
p1590
aVentered
p1591
aVentering
p1592
aVenterprise
p1593
aVenterprises
p1594
aVenters
p1595
aVentertainment
p1596
aVentire
p1597
aVentities
p1598
aVentrants
p1599
aVentrepreneur
p1600
aVentrepreneurs
p1601
aVentries
p1602
aVentrusted
p1603
aVentry
p1604
aVenvelope
p1605
aVenvironment
p1606
aVenvironmental
p1607
aVenvironmentally
p1608
aVenvironments
p1609
aVenvisioned
p1610
aVenzinger
p1611
aVepni
p1612
aVequal
p1613
aVequally
p1614
aVequip
p1615
aVequipment
p1616
aVequipped
p1617
aVequipping
p1618
aVequivalent
p1619
aVera
p1620
aVeram
p1621
aVeris
p1622
aVerror
p1623
aVerrors
p1624
aVes
p1625
aVesa
p1626
aVesbjerg
p1627
aVespecially
p1628
aVessential
p1629
aVessp
p1630
aVestablish
p1631
aVestablished
p1632
aVestablishes
p1633
aVestablishing
p1634
aVestablishment
p1635
aVestimated
p1636
aVestimates
p1637
aVestonia
p1638
aVestonian
p1639
aVet
p1640
aVetc
p1641
aVetihad
p1642
aVeu
p1643
aVeur
p1644
aVeuro
p1645
aVeurocae
p1646
aVeurocontrol
p1647
aVeurope
p1648
aVeuropean
p1649
aVeuros
p1650
aVevaluate
p1651
aVevaluating
p1652
aVevaluation
p1653
aVevaluations
p1654
aVeven
p1655
aVevening
p1656
aVevent
p1657
aVevents
p1658
aVever
p1659
aVevery
p1660
aVeveryday
p1661
aVeveryone
p1662
aVeverything
p1663
aVevidence
p1664
aVevolution
p1665
aVevolve
p1666
aVevolved
p1667
aVevolving
p1668
aVexact
p1669
aVexactly
p1670
aVexample
p1671
aVexamples
p1672
aVexceed
p1673
aVexceeds
p1674
aVexcellence
p1675
aVexcellency
p1676
aVexcellent
p1677
aVexcept
p1678
aVexception
p1679
aVexceptional
p1680
aVexchange
p1681
aVexchanges
p1682
aVexchanging
p1683
aVexcited
p1684
aVexciting
p1685
aVexclusively
p1686
aVexecution
p1687
aVexecutive
p1688
aVexemplar
p1689
aVexemption
p1690
aVexercise
p1691
aVexercises
p1692
aVexfiltration
p1693
aVexhibit
p1694
aVexhibiting
p1695
aVexhibition
p1696
aVexhibitors
p1697
aVexisting
p1698
aVexpand
p1699
aVexpanded
p1700
aVexpanding
p1701
aVexpands
p1702
aVexpansion
p1703
aVexpect
p1704
aVexpectations
p1705
aVexpected
p1706
aVexpects
p1707
aVexpedited
p1708
aVexperience
p1709
aVexperienced
p1710
aVexperiences
p1711
aVexperiencing
p1712
aVexpert
p1713
aVexpertise
p1714
aVexperts
p1715
aVexplained
p1716
aVexplaining
p1717
aVexplains
p1718
aVexploit
p1719
aVexploitation
p1720
aVexplore
p1721
aVexplosive
p1722
aVexplosives
p1723
aVexport
p1724
aVexpress
p1725
aVexpressed
p1726
aVextend
p1727
aVextended
p1728
aVextending
p1729
aVextends
p1730
aVextension
p1731
aVextensive
p1732
aVextent
p1733
aVexternal
p1734
aVextra
p1735
aVextraordinary
p1736
aVextreme
p1737
aVextremely
p1738
aVextremism
p1739
aVeye
p1740
aVfaa
p1741
aVfab
p1742
aVfabec
p1743
aVfabric
p1744
aVface
p1745
aVfacebook
p1746
aVfaced
p1747
aVfaces
p1748
aVfacilitate
p1749
aVfacilitates
p1750
aVfacilitating
p1751
aVfacilities
p1752
aVfacility
p1753
aVfacing
p1754
aVfact
p1755
aVfactor
p1756
aVfactors
p1757
aVfactory
p1758
aVfaculty
p1759
aVfail
p1760
aVfails
p1761
aVfailure
p1762
aVfair
p1763
aVfaith
p1764
aVfalcon
p1765
aVfall
p1766
aVfallen
p1767
aVfalling
p1768
aVfamilies
p1769
aVfamily
p1770
aVfang
p1771
aVfans
p1772
aVfar
p1773
aVfast
p1774
aVfaster
p1775
aVfastest
p1776
aVfat
p1777
aVfatal
p1778
aVfatalities
p1779
aVfather
p1780
aVfavorite
p1781
aVfbi
p1782
aVfeasibility
p1783
aVfeature
p1784
aVfeatured
p1785
aVfeatures
p1786
aVfeaturing
p1787
aVfeb
p1788
aVfebruary
p1789
aVfederal
p1790
aVfederally
p1791
aVfederation
p1792
aVfedex
p1793
aVfedvte
p1794
aVfee
p1795
aVfeed
p1796
aVfeedback
p1797
aVfeel
p1798
aVfees
p1799
aVfeet
p1800
aVfell
p1801
aVfellow
p1802
aVfelt
p1803
aVfema
p1804
aVfep
p1805
aVferia
p1806
aVfewer
p1807
aVfield
p1808
aVfields
p1809
aVfifteen
p1810
aVfifth
p1811
aVfifty
p1812
aVfight
p1813
aVfighter
p1814
aVfighting
p1815
aVfigures
p1816
aVfile
p1817
aVfiles
p1818
aVfill
p1819
aVfinal
p1820
aVfinalized
p1821
aVfinally
p1822
aVfinance
p1823
aVfinanced
p1824
aVfinancial
p1825
aVfinancing
p1826
aVfinavia
p1827
aVfind
p1828
aVfinder
p1829
aVfinding
p1830
aVfindings
p1831
aVfine
p1832
aVfinished
p1833
aVfinland
p1834
aVfir
p1835
aVfire
p1836
aVfirearms
p1837
aVfirefighters
p1838
aVfirm
p1839
aVfirmly
p1840
aVfirs
p1841
aVfirst
p1842
aVfiscal
p1843
aVfishing
p1844
aVfit
p1845
aVfitness
p1846
aVfiumicino
p1847
aVfive
p1848
aVfix
p1849
aVfixed
p1850
aVfl
p1851
aVflagship
p1852
aVflashing
p1853
aVflat
p1854
aVfleet
p1855
aVfletc
p1856
aVflew
p1857
aVflexibility
p1858
aVflexible
p1859
aVflight
p1860
aVflightaware
p1861
aVflightradar
p1862
aVflights
p1863
aVflighttracker
p1864
aVflood
p1865
aVflooding
p1866
aVflorian
p1867
aVflorida
p1868
aVflow
p1869
aVflown
p1870
aVflows
p1871
aVflugsicherung
p1872
aVfly
p1873
aVflying
p1874
aVflytlive
p1875
aVfocus
p1876
aVfocused
p1877
aVfocuses
p1878
aVfocusing
p1879
aVfollow
p1880
aVfollowed
p1881
aVfollowing
p1882
aVfollows
p1883
aVfood
p1884
aVfoot
p1885
aVfootball
p1886
aVfootprint
p1887
aVforce
p1888
aVforced
p1889
aVforces
p1890
aVforecast
p1891
aVforecasted
p1892
aVforecasts
p1893
aVforefront
p1894
aVforeign
p1895
aVforensic
p1896
aVforensics
p1897
aVforeseen
p1898
aVform
p1899
aVformal
p1900
aVformally
p1901
aVformat
p1902
aVformed
p1903
aVformer
p1904
aVforms
p1905
aVfort
p1906
aVforum
p1907
aVforward
p1908
aVfos
p1909
aVfossil
p1910
aVfoster
p1911
aVfound
p1912
aVfoundation
p1913
aVfounded
p1914
aVfounder
p1915
aVfour
p1916
aVfourth
p1917
aVfps
p1918
aVfra
p1919
aVfraction
p1920
aVframe
p1921
aVframework
p1922
aVfran
p1923
aVfrance
p1924
aVfrancisco
p1925
aVfrank
p1926
aVfrankfurt
p1927
aVfraud
p1928
aVfree
p1929
aVfreedom
p1930
aVfreight
p1931
aVfrench
p1932
aVfrequencies
p1933
aVfrequency
p1934
aVfrequentis
p1935
aVfrequently
p1936
aVfriday
p1937
aVfriendly
p1938
aVfriends
p1939
aVfront
p1940
aVfrontlines
p1941
aVfruitful
p1942
aVfs
p1943
aVftks
p1944
aVfuel
p1945
aVfuels
p1946
aVfulfil
p1947
aVfulfilling
p1948
aVfulfils
p1949
aVfulghum
p1950
aVfull
p1951
aVfully
p1952
aVfun
p1953
aVfunction
p1954
aVfunctional
p1955
aVfunctionalities
p1956
aVfunctionality
p1957
aVfunctions
p1958
aVfund
p1959
aVfundamental
p1960
aVfunded
p1961
aVfunding
p1962
aVfunds
p1963
aVfurthermore
p1964
aVfusion
p1965
aVfuture
p1966
aVfy
p1967
aVga
p1968
aVgaca
p1969
aVgadss
p1970
aVgain
p1971
aVgained
p1972
aVgains
p1973
aVgalicia
p1974
aVgame
p1975
aVgames
p1976
aVgap
p1977
aVgaps
p1978
aVgarbini
p1979
aVgas
p1980
aVgate
p1981
aVgateway
p1982
aVgather
p1983
aVgathered
p1984
aVgathering
p1985
aVgathers
p1986
aVgats
p1987
aVgatwick
p1988
aVgave
p1989
aVgbas
p1990
aVgcaa
p1991
aVgdp
p1992
aVge
p1993
aVgeci
p1994
aVgeneral
p1995
aVgenerally
p1996
aVgenerate
p1997
aVgenerated
p1998
aVgenerates
p1999
aVgenerating
p2000
aVgeneration
p2001
aVgenerations
p2002
aVgeo
p2003
aVgeographic
p2004
aVgeographically
p2005
aVgeorge
p2006
aVgeorgia
p2007
aVgeospatial
p2008
aVgerald
p2009
aVgerman
p2010
aVgermanwings
p2011
aVgermany
p2012
aVgerry
p2013
aVget
p2014
aVgetting
p2015
aVgibson
p2016
aVgift
p2017
aVgifts
p2018
aVgill
p2019
aVgittens
p2020
aVgive
p2021
aVgiven
p2022
aVgives
p2023
aVgiving
p2024
aVglad
p2025
aVglass
p2026
aVglobal
p2027
aVglobalbeacon
p2028
aVglobally
p2029
aVglobe
p2030
aVglynco
p2031
aVgm
p2032
aVgmbh
p2033
aVgnss
p2034
aVgo
p2035
aVgoal
p2036
aVgoals
p2037
aVgoes
p2038
aVgoing
p2039
aVgold
p2040
aVgood
p2041
aVgoods
p2042
aVgot
p2043
aVgov
p2044
aVgovernance
p2045
aVgoverning
p2046
aVgovernment
p2047
aVgovernmental
p2048
aVgovernments
p2049
aVgovernor
p2050
aVgovernors
p2051
aVgps
p2052
aVgrabbing
p2053
aVgrade
p2054
aVgraduate
p2055
aVgraduated
p2056
aVgraduates
p2057
aVgraduation
p2058
aVgrandfather
p2059
aVgrant
p2060
aVgranted
p2061
aVgrants
p2062
aVgraphical
p2063
aVgraphics
p2064
aVgratitude
p2065
aVgreat
p2066
aVgreater
p2067
aVgreatest
p2068
aVgreatly
p2069
aVgreek
p2070
aVgreen
p2071
aVgreener
p2072
aVgreenhouse
p2073
aVgreenland
p2074
aVgrew
p2075
aVground
p2076
aVgroup
p2077
aVgroups
p2078
aVgrow
p2079
aVgrowing
p2080
aVgrown
p2081
aVgrows
p2082
aVgrowth
p2083
aVgrumman
p2084
aVgs
p2085
aVguarantee
p2086
aVguarantees
p2087
aVguard
p2088
aVguardrec
p2089
aVguardsmen
p2090
aVguavus
p2091
aVguez
p2092
aVguidance
p2093
aVguide
p2094
aVguided
p2095
aVguidelines
p2096
aVguillermet
p2097
aVgulf
p2098
aVguns
p2099
aVguy
p2100
aVguyana
p2101
aVgx
p2102
aVhalf
p2103
aVhall
p2104
aVhand
p2105
aVhandle
p2106
aVhandled
p2107
aVhandlers
p2108
aVhandles
p2109
aVhandling
p2110
aVhandover
p2111
aVhands
p2112
aVhannouche
p2113
aVhannu
p2114
aVhansen
p2115
aVhappen
p2116
aVhappy
p2117
aVharbor
p2118
aVhard
p2119
aVhardware
p2120
aVharfield
p2121
aVharm
p2122
aVharmonisation
p2123
aVharmonised
p2124
aVharmonization
p2125
aVharmony
p2126
aVharris
p2127
aVhaul
p2128
aVhazard
p2129
aVhazardous
p2130
aVhazards
p2131
aVhead
p2132
aVheaded
p2133
aVheadquartered
p2134
aVheadquarters
p2135
aVheadset
p2136
aVheadsets
p2137
aVheadwinds
p2138
aVhealth
p2139
aVhealthcare
p2140
aVhear
p2141
aVheard
p2142
aVheart
p2143
aVheat
p2144
aVheathrow
p2145
aVheavily
p2146
aVheavy
p2147
aVheight
p2148
aVheights
p2149
aVheinous
p2150
aVheld
p2151
aVhelicopter
p2152
aVhelicopters
p2153
aVhelios
p2154
aVhelp
p2155
aVhelped
p2156
aVhelpful
p2157
aVhelping
p2158
aVhelps
p2159
aVhenrik
p2160
aVhensoldt
p2161
aVherbert
p2162
aVhereinafter
p2163
aVherzegovina
p2164
aVhh
p2165
aVhial
p2166
aVhigh
p2167
aVhigher
p2168
aVhighest
p2169
aVhighlight
p2170
aVhighlighted
p2171
aVhighlighting
p2172
aVhighlights
p2173
aVhighly
p2174
aVhire
p2175
aVhiring
p2176
aVhistoric
p2177
aVhistorical
p2178
aVhistorically
p2179
aVhistory
p2180
aVho
p2181
aVhobby
p2182
aVhohlmeier
p2183
aVhold
p2184
aVholding
p2185
aVholds
p2186
aVholiday
p2187
aVholidays
p2188
aVhololei
p2189
aVhome
p2190
aVhomeland
p2191
aVhomes
p2192
aVhometown
p2193
aVhoneywell
p2194
aVhonor
p2195
aVhonored
p2196
aVhonoring
p2197
aVhonoured
p2198
aVhoover
p2199
aVhope
p2200
aVhorizon
p2201
aVhorizontal
p2202
aVhospitality
p2203
aVhost
p2204
aVhosted
p2205
aVhosting
p2206
aVhotel
p2207
aVhour
p2208
aVhours
p2209
aVhouse
p2210
aVhouses
p2211
aVhousing
p2212
aVhouston
p2213
aVhowever
p2214
aVhsaac
p2215
aVhsi
p2216
aVhttp
p2217
aVhttps
p2218
aVhub
p2219
aVhuerta
p2220
aVhuge
p2221
aVhughes
p2222
aVhulda
p2223
aVhuman
p2224
aVhundred
p2225
aVhundreds
p2226
aVhungarian
p2227
aVhungarocontrol
p2228
aVhungary
p2229
aVhunt
p2230
aVhurghada
p2231
aVhurricane
p2232
aVhybrid
p2233
aViaa
p2234
aViaff
p2235
aViag
p2236
aViaopa
p2237
aViasa
p2238
aViata
p2239
aVicao
p2240
aVice
p2241
aViceland
p2242
aVics
p2243
aVid
p2244
aVidea
p2245
aVideal
p2246
aVideas
p2247
aVidentification
p2248
aVidentified
p2249
aVidentifies
p2250
aVidentify
p2251
aVidentifying
p2252
aVidentity
p2253
aVifak
p2254
aVifatca
p2255
aVihs
p2256
aVii
p2257
aViiac
p2258
aViii
p2259
aVillegal
p2260
aVillicit
p2261
aVillinois
p2262
aVils
p2263
aVimage
p2264
aVimages
p2265
aVimagine
p2266
aVimaging
p2267
aVimmediate
p2268
aVimmediately
p2269
aVimmersive
p2270
aVimmigrant
p2271
aVimmigrants
p2272
aVimmigrated
p2273
aVimmigration
p2274
aVimpact
p2275
aVimpacted
p2276
aVimpactful
p2277
aVimpacting
p2278
aVimpacts
p2279
aVimperative
p2280
aVimplement
p2281
aVimplementation
p2282
aVimplementations
p2283
aVimplemented
p2284
aVimplementing
p2285
aVimplications
p2286
aVimport
p2287
aVimportance
p2288
aVimportant
p2289
aVimportantly
p2290
aVimportation
p2291
aVimpressive
p2292
aVimprove
p2293
aVimproved
p2294
aVimprovement
p2295
aVimprovements
p2296
aVimproves
p2297
aVimproving
p2298
aVimprovised
p2299
aVinac
p2300
aVinaer
p2301
aVinaugural
p2302
aVinaugurated
p2303
aVinbound
p2304
aVinc
p2305
aVincentive
p2306
aVincentives
p2307
aVincentivize
p2308
aVincheon
p2309
aVincident
p2310
aVincidents
p2311
aVinclude
p2312
aVincluded
p2313
aVincludes
p2314
aVincluding
p2315
aVincome
p2316
aVincorporate
p2317
aVincorporated
p2318
aVincorporates
p2319
aVincorporating
p2320
aVincorporation
p2321
aVincrease
p2322
aVincreased
p2323
aVincreases
p2324
aVincreasing
p2325
aVincreasingly
p2326
aVincredible
p2327
aVincredibly
p2328
aVincursions
p2329
aVindeed
p2330
aVindependent
p2331
aVindependently
p2332
aVindia
p2333
aVindian
p2334
aVindicate
p2335
aVindicated
p2336
aVindicative
p2337
aVindicator
p2338
aVindicators
p2339
aVindices
p2340
aVindividual
p2341
aVindividuals
p2342
aVindonesia
p2343
aVindoor
p2344
aVindra
p2345
aVindustrial
p2346
aVindustries
p2347
aVindustry
p2348
aVinea
p2349
aVinefficiencies
p2350
aVinefficiency
p2351
aVinefficient
p2352
aVinfected
p2353
aVinflight
p2354
aVinfo
p2355
aVinfographic
p2356
aVinform
p2357
aVinformation
p2358
aVinformed
p2359
aVinfrastructure
p2360
aVinfrastructures
p2361
aVingestad
p2362
aVinherent
p2363
aVinitial
p2364
aVinitially
p2365
aVinitiate
p2366
aVinitiated
p2367
aVinitiative
p2368
aVinitiatives
p2369
aVinitio
p2370
aVinjured
p2371
aVinmarsat
p2372
aVinnovation
p2373
aVinnovations
p2374
aVinnovative
p2375
aVinnovator
p2376
aVinput
p2377
aVinside
p2378
aVinsight
p2379
aVinsights
p2380
aVinspection
p2381
aVinspections
p2382
aVinspiration
p2383
aVinspire
p2384
aVinspired
p2385
aVinstall
p2386
aVinstallation
p2387
aVinstallations
p2388
aVinstalled
p2389
aVinstance
p2390
aVinstances
p2391
aVinstead
p2392
aVinstitute
p2393
aVinstitutions
p2394
aVinstructions
p2395
aVinstructor
p2396
aVinstructors
p2397
aVinstrument
p2398
aVinstrumental
p2399
aVinsufficient
p2400
aVinsurance
p2401
aVintake
p2402
aVintegral
p2403
aVintegrate
p2404
aVintegrated
p2405
aVintegrates
p2406
aVintegrating
p2407
aVintegration
p2408
aVintegrator
p2409
aVintegrity
p2410
aVintellectual
p2411
aVintelligence
p2412
aVintelligent
p2413
aVintend
p2414
aVintended
p2415
aVintends
p2416
aVintense
p2417
aVintensive
p2418
aVintent
p2419
aVintention
p2420
aVintentional
p2421
aVinter
p2422
aVinteraction
p2423
aVinteractive
p2424
aVinteragency
p2425
aVinterconnected
p2426
aVinterdicted
p2427
aVinterest
p2428
aVinterested
p2429
aVinteresting
p2430
aVinterests
p2431
aVinterface
p2432
aVinterfaces
p2433
aVinterior
p2434
aVintermodal
p2435
aVinternal
p2436
aVinternational
p2437
aVinternationally
p2438
aVinternet
p2439
aVinterns
p2440
aVinteroperability
p2441
aVinteroperable
p2442
aVinterventions
p2443
aVinterview
p2444
aVintra
p2445
aVintroduce
p2446
aVintroduced
p2447
aVintroducing
p2448
aVintroduction
p2449
aVintuitive
p2450
aVinvaluable
p2451
aVinvest
p2452
aVinvested
p2453
aVinvestigate
p2454
aVinvestigated
p2455
aVinvestigating
p2456
aVinvestigation
p2457
aVinvestigations
p2458
aVinvestigative
p2459
aVinvesting
p2460
aVinvestment
p2461
aVinvestments
p2462
aVinvestors
p2463
aVinvite
p2464
aVinvited
p2465
aVinvolve
p2466
aVinvolved
p2467
aVinvolvement
p2468
aVinvolves
p2469
aVinvolving
p2470
aVip
p2471
aViraq
p2472
aViraqi
p2473
aVireland
p2474
aViridium
p2475
aViris
p2476
aVirish
p2477
aVirs
p2478
aVisat
p2479
aVisavia
p2480
aVisil
p2481
aVislamic
p2482
aVisland
p2483
aVislands
p2484
aVissue
p2485
aVissued
p2486
aVissues
p2487
aVistanbul
p2488
aVistream
p2489
aVitalian
p2490
aVitaly
p2491
aVitec
p2492
aVitem
p2493
aVitems
p2494
aViv
p2495
aVivsr
p2496
aVjaafar
p2497
aVjacket
p2498
aVjames
p2499
aVjane
p2500
aVjans
p2501
aVjanuary
p2502
aVjapan
p2503
aVjasper
p2504
aVjcpx
p2505
aVjean
p2506
aVjeff
p2507
aVjeh
p2508
aVjeppesen
p2509
aVjersey
p2510
aVjet
p2511
aVjetta
p2512
aVjewelry
p2513
aVjfk
p2514
aVjica
p2515
aVjob
p2516
aVjobs
p2517
aVjoe
p2518
aVjohan
p2519
aVjohn
p2520
aVjohnson
p2521
aVjoin
p2522
aVjoined
p2523
aVjoining
p2524
aVjoins
p2525
aVjoint
p2526
aVjointly
p2527
aVjordanian
p2528
aVjorge
p2529
aVjoseph
p2530
aVjotron
p2531
aVjourney
p2532
aVjpo
p2533
aVjti
p2534
aVju
p2535
aVjuan
p2536
aVjudge
p2537
aVjudges
p2538
aVjuly
p2539
aVjune
p2540
aVjuniac
p2541
aVjupiter
p2542
aVjustice
p2543
aVjuurakko
p2544
aVka
p2545
aVkarlsruhe
p2546
aVkeen
p2547
aVkeep
p2548
aVkeeping
p2549
aVkelly
p2550
aVkelvin
p2551
aVkennedy
p2552
aVkept
p2553
aVkerlikowske
p2554
aVkey
p2555
aVkeyboard
p2556
aVkeynote
p2557
aVkg
p2558
aVkids
p2559
aVkilometers
p2560
aVkilometres
p2561
aVkind
p2562
aVkinds
p2563
aVkingdom
p2564
aVkit
p2565
aVklaus
p2566
aVklintberg
p2567
aVklm
p2568
aVkm
p2569
aVknew
p2570
aVknives
p2571
aVknow
p2572
aVknowledge
p2573
aVknown
p2574
aVkorea
p2575
aVktn
p2576
aVkvm
p2577
aVla
p2578
aVlab
p2579
aVlabor
p2580
aVlaboratories
p2581
aVlaboratory
p2582
aVlack
p2583
aVlake
p2584
aVlamb
p2585
aVlaminar
p2586
aVland
p2587
aVlanding
p2588
aVlandings
p2589
aVlandmark
p2590
aVlandscape
p2591
aVlandside
p2592
aVlane
p2593
aVlanes
p2594
aVlangen
p2595
aVlanguage
p2596
aVlao
p2597
aVlaos
p2598
aVlaptop
p2599
aVlaptops
p2600
aVlarge
p2601
aVlargely
p2602
aVlarger
p2603
aVlargest
p2604
aVlaser
p2605
aVlast
p2606
aVlasting
p2607
aVlate
p2608
aVlater
p2609
aVlatest
p2610
aVlatin
p2611
aVlatter
p2612
aVlatvia
p2613
aVlaunch
p2614
aVlaunched
p2615
aVlaunches
p2616
aVlaunching
p2617
aVlaw
p2618
aVlawful
p2619
aVlaws
p2620
aVlay
p2621
aVlayer
p2622
aVlaying
p2623
aVlays
p2624
aVlcd
p2625
aVldsvik
p2626
aVle
p2627
aVlead
p2628
aVleader
p2629
aVleaders
p2630
aVleadership
p2631
aVleading
p2632
aVleads
p2633
aVleap
p2634
aVlearn
p2635
aVlearned
p2636
aVlearning
p2637
aVleast
p2638
aVleave
p2639
aVleaves
p2640
aVleaving
p2641
aVled
p2642
aVlee
p2643
aVleft
p2644
aVlegacy
p2645
aVlegal
p2646
aVlegislation
p2647
aVlegislative
p2648
aVlength
p2649
aVleo
p2650
aVleonardo
p2651
aVless
p2652
aVlesser
p2653
aVlessons
p2654
aVlet
p2655
aVletter
p2656
aVletters
p2657
aVlevel
p2658
aVlevels
p2659
aVleverage
p2660
aVleveraging
p2661
aVlfv
p2662
aVlgs
p2663
aVli
p2664
aVliability
p2665
aVliberalisation
p2666
aVliberalization
p2667
aVliberties
p2668
aVliberty
p2669
aVlibrary
p2670
aVlibya
p2671
aVlibyan
p2672
aVlicense
p2673
aVlicenses
p2674
aVlidar
p2675
aVlieutenant
p2676
aVlife
p2677
aVlifecycle
p2678
aVlight
p2679
aVlighter
p2680
aVlighting
p2681
aVlightning
p2682
aVlights
p2683
aVlike
p2684
aVlikely
p2685
aVlimitations
p2686
aVlimited
p2687
aVlimits
p2688
aVlinate
p2689
aVlincoln
p2690
aVline
p2691
aVlines
p2692
aVlink
p2693
aVlinked
p2694
aVlinks
p2695
aVliquids
p2696
aVlisa
p2697
aVlisbon
p2698
aVlist
p2699
aVlithuania
p2700
aVlithuanian
p2701
aVlittle
p2702
aVliu
p2703
aVlive
p2704
aVlives
p2705
aVliving
p2706
aVllc
p2707
aVller
p2708
aVload
p2709
aVlocal
p2710
aVlocally
p2711
aVlocate
p2712
aVlocated
p2713
aVlocation
p2714
aVlocations
p2715
aVlock
p2716
aVlocked
p2717
aVlockheed
p2718
aVlocks
p2719
aVlodging
p2720
aVlog
p2721
aVlogic
p2722
aVlogin
p2723
aVlogistics
p2724
aVloi
p2725
aVlondon
p2726
aVlong
p2727
aVlonger
p2728
aVlongstanding
p2729
aVlook
p2730
aVlooking
p2731
aVlooks
p2732
aVlopez
p2733
aVlos
p2734
aVlose
p2735
aVloss
p2736
aVlosses
p2737
aVlost
p2738
aVlot
p2739
aVlouisiana
p2740
aVloved
p2741
aVlow
p2742
aVlower
p2743
aVlowest
p2744
aVlozano
p2745
aVlpa
p2746
aVltd
p2747
aVlte
p2748
aVluciad
p2749
aVlufthansa
p2750
aVluggage
p2751
aVluis
p2752
aVlunch
p2753
aVluncheon
p2754
aVluxembourg
p2755
aVlvnl
p2756
aVmaastricht
p2757
aVmachine
p2758
aVmachines
p2759
aVmade
p2760
aVmadrid
p2761
aVmagali
p2762
aVmain
p2763
aVmainly
p2764
aVmaintain
p2765
aVmaintained
p2766
aVmaintaining
p2767
aVmaintenance
p2768
aVmajor
p2769
aVmajority
p2770
aVmakassar
p2771
aVmake
p2772
aVmakers
p2773
aVmakes
p2774
aVmaking
p2775
aVmaktoum
p2776
aVmalaysia
p2777
aVmalicious
p2778
aVmalm
p2779
aVmalware
p2780
aVman
p2781
aVmanage
p2782
aVmanaged
p2783
aVmanagement
p2784
aVmanager
p2785
aVmanagerial
p2786
aVmanagers
p2787
aVmanages
p2788
aVmanaging
p2789
aVmandate
p2790
aVmandated
p2791
aVmandatory
p2792
aVmanned
p2793
aVmanner
p2794
aVmanoeuvring
p2795
aVmanually
p2796
aVmanuals
p2797
aVmanufactured
p2798
aVmanufacturer
p2799
aVmanufacturers
p2800
aVmanufacturing
p2801
aVmany
p2802
aVmap
p2803
aVmarc
p2804
aVmarch
p2805
aVmargin
p2806
aVmarine
p2807
aVmarines
p2808
aVmario
p2809
aVmaritime
p2810
aVmark
p2811
aVmarked
p2812
aVmarket
p2813
aVmarketing
p2814
aVmarketplace
p2815
aVmarkets
p2816
aVmarking
p2817
aVmarks
p2818
aVmarkus
p2819
aVmarseille
p2820
aVmarshall
p2821
aVmartin
p2822
aVmaryland
p2823
aVmass
p2824
aVmassimo
p2825
aVmassive
p2826
aVmaster
p2827
aVmatch
p2828
aVmaterial
p2829
aVmaterials
p2830
aVmathematics
p2831
aVmatias
p2832
aVmatrix
p2833
aVmatter
p2834
aVmatters
p2835
aVmature
p2836
aVmaximise
p2837
aVmaximize
p2838
aVmaximum
p2839
aVmay
p2840
aVmayor
p2841
aVmayorkas
p2842
aVmbm
p2843
aVmccarran
p2844
aVmcmillan
p2845
aVmeal
p2846
aVmeals
p2847
aVmean
p2848
aVmeaning
p2849
aVmeans
p2850
aVmeant
p2851
aVmeanwhile
p2852
aVmeasure
p2853
aVmeasured
p2854
aVmeasurement
p2855
aVmeasures
p2856
aVmeasuring
p2857
aVmechanical
p2858
aVmechanism
p2859
aVmedal
p2860
aVmedia
p2861
aVmedical
p2862
aVmediterranean
p2863
aVmedium
p2864
aVmeet
p2865
aVmeeting
p2866
aVmeets
p2867
aVmeloa
p2868
aVmember
p2869
aVmembers
p2870
aVmembership
p2871
aVmemorandum
p2872
aVmemorial
p2873
aVmen
p2874
aVmental
p2875
aVmention
p2876
aVmentioned
p2877
aVmessage
p2878
aVmessages
p2879
aVmessaging
p2880
aVmessenger
p2881
aVmet
p2882
aVmeteorological
p2883
aVmeters
p2884
aVmethod
p2885
aVmethods
p2886
aVmetres
p2887
aVmetron
p2888
aVmetropolitan
p2889
aVmexican
p2890
aVmexico
p2891
aVmiami
p2892
aVmichael
p2893
aVmichiel
p2894
aVmichigan
p2895
aVmicro
p2896
aVmicrosoft
p2897
aVmid
p2898
aVmiddle
p2899
aVmight
p2900
aVmigration
p2901
aVmike
p2902
aVmikulski
p2903
aVmilan
p2904
aVmile
p2905
aVmiles
p2906
aVmilestone
p2907
aVmilestones
p2908
aVmilitary
p2909
aVmillion
p2910
aVmillions
p2911
aVmind
p2912
aVminimal
p2913
aVminimise
p2914
aVminimize
p2915
aVminimum
p2916
aVminister
p2917
aVministerial
p2918
aVministers
p2919
aVministry
p2920
aVminute
p2921
aVminutes
p2922
aVmiss
p2923
aVmissed
p2924
aVmissing
p2925
aVmission
p2926
aVmissions
p2927
aVmistake
p2928
aVmitigate
p2929
aVmitigation
p2930
aVmlat
p2931
aVmobile
p2932
aVmobility
p2933
aVmoc
p2934
aVmode
p2935
aVmodel
p2936
aVmodeling
p2937
aVmodelling
p2938
aVmodels
p2939
aVmoderate
p2940
aVmoderated
p2941
aVmodern
p2942
aVmodernisation
p2943
aVmodernise
p2944
aVmodernising
p2945
aVmodernization
p2946
aVmodernize
p2947
aVmodernized
p2948
aVmodernizing
p2949
aVmodest
p2950
aVmodifications
p2951
aVmodular
p2952
aVmodule
p2953
aVmodules
p2954
aVmohammed
p2955
aVmoment
p2956
aVmoments
p2957
aVmomentum
p2958
aVmonaco
p2959
aVmondale
p2960
aVmonday
p2961
aVmonetising
p2962
aVmoney
p2963
aVmongolia
p2964
aVmongolian
p2965
aVmonitor
p2966
aVmonitored
p2967
aVmonitoring
p2968
aVmonitors
p2969
aVmonopoly
p2970
aVmontenegro
p2971
aVmonth
p2972
aVmonthly
p2973
aVmonths
p2974
aVmontreal
p2975
aVmorehouse
p2976
aVmoreover
p2977
aVmorning
p2978
aVmother
p2979
aVmotion
p2980
aVmotivation
p2981
aVmotto
p2982
aVmou
p2983
aVmounted
p2984
aVmounting
p2985
aVmouse
p2986
aVmove
p2987
aVmoved
p2988
aVmovement
p2989
aVmovements
p2990
aVmoves
p2991
aVmoving
p2992
aVmr
p2993
aVmrs
p2994
aVms
p2995
aVmss
p2996
aVmssr
p2997
aVmuac
p2998
aVmuch
p2999
aVmulti
p3000
aVmultilateration
p3001
aVmultiple
p3002
aVmultisensor
p3003
aVmunich
p3004
aVmurray
p3005
aVmuseum
p3006
aVmuslim
p3007
aVmuslims
p3008
aVmust
p3009
aVmutual
p3010
aVnajaf
p3011
aVname
p3012
aVnamed
p3013
aVnames
p3014
aVnansc
p3015
aVnapier
p3016
aVnasa
p3017
aVnat
p3018
aVnatasha
p3019
aVnatca
p3020
aVnate
p3021
aVnation
p3022
aVnational
p3023
aVnationality
p3024
aVnationals
p3025
aVnations
p3026
aVnationwide
p3027
aVnative
p3028
aVnats
p3029
aVnatural
p3030
aVnaturalization
p3031
aVnaturalized
p3032
aVnature
p3033
aVnav
p3034
aVnavaid
p3035
aVnavaids
p3036
aVnaval
p3037
aVnavblue
p3038
aVnaviair
p3039
aVnavigacija
p3040
aVnavigate
p3041
aVnavigation
p3042
aVnavy
p3043
aVnccic
p3044
aVncirp
p3045
aVnd
p3046
aVnear
p3047
aVnearby
p3048
aVnearly
p3049
aVnecessary
p3050
aVneed
p3051
aVneeded
p3052
aVneeding
p3053
aVneeds
p3054
aVneeson
p3055
aVnefab
p3056
aVnefra
p3057
aVnegative
p3058
aVnegotiating
p3059
aVnegotiations
p3060
aVneighboring
p3061
aVneighbors
p3062
aVneo
p3063
aVnet
p3064
aVnetflow
p3065
aVnetherlands
p3066
aVnetjets
p3067
aVnets
p3068
aVnetwork
p3069
aVnetworked
p3070
aVnetworking
p3071
aVnetworks
p3072
aVneutral
p3073
aVnevada
p3074
aVnever
p3075
aVnevertheless
p3076
aVnew
p3077
aVnewark
p3078
aVnewest
p3079
aVnewly
p3080
aVnews
p3081
aVnext
p3082
aVnextgen
p3083
aVng
p3084
aVnight
p3085
aVnine
p3086
aVnm
p3087
aVnoise
p3088
aVnok
p3089
aVnominated
p3090
aVnominations
p3091
aVnon
p3092
aVnormal
p3093
aVnorth
p3094
aVnorthern
p3095
aVnorthrop
p3096
aVnorthwest
p3097
aVnorway
p3098
aVnorwegian
p3099
aVnotable
p3100
aVnotably
p3101
aVnotam
p3102
aVnote
p3103
aVnoted
p3104
aVnotes
p3105
aVnotice
p3106
aVnoting
p3107
aVnov
p3108
aVnovember
p3109
aVnox
p3110
aVnppd
p3111
aVnps
p3112
aVntt
p3113
aVnttx
p3114
aVnuclear
p3115
aVnumber
p3116
aVnumbers
p3117
aVnumerous
p3118
aVoath
p3119
aVobama
p3120
aVobion
p3121
aVobject
p3122
aVobjective
p3123
aVobjectives
p3124
aVobjects
p3125
aVobservation
p3126
aVobserve
p3127
aVobserved
p3128
aVobstacles
p3129
aVobtain
p3130
aVobtained
p3131
aVoccasion
p3132
aVoccur
p3133
aVoccurred
p3134
aVoccurrence
p3135
aVoccurring
p3136
aVoccurs
p3137
aVocean
p3138
aVoceanic
p3139
aVoctober
p3140
aVodp
p3141
aVoffer
p3142
aVoffered
p3143
aVoffering
p3144
aVofferings
p3145
aVoffers
p3146
aVoffice
p3147
aVofficer
p3148
aVofficers
p3149
aVoffices
p3150
aVofficial
p3151
aVofficially
p3152
aVofficials
p3153
aVoffset
p3154
aVoffsetting
p3155
aVoften
p3156
aVohio
p3157
aVoig
p3158
aVoil
p3159
aVold
p3160
aVolympics
p3161
aVoman
p3162
aVombudsman
p3163
aVonboard
p3164
aVone
p3165
aVones
p3166
aVongoing
p3167
aVonline
p3168
aVonto
p3169
aVopen
p3170
aVopened
p3171
aVopening
p3172
aVopens
p3173
aVopera
p3174
aVoperate
p3175
aVoperated
p3176
aVoperates
p3177
aVoperating
p3178
aVoperation
p3179
aVoperational
p3180
aVoperations
p3181
aVoperator
p3182
aVoperators
p3183
aVopinion
p3184
aVopportunities
p3185
aVopportunity
p3186
aVopposing
p3187
aVoptimal
p3188
aVoptimisation
p3189
aVoptimise
p3190
aVoptimised
p3191
aVoptimism
p3192
aVoptimization
p3193
aVoptimize
p3194
aVoptimized
p3195
aVoptimizing
p3196
aVoptimum
p3197
aVoption
p3198
aVoptions
p3199
aVoptronics
p3200
aVorbit
p3201
aVorder
p3202
aVorders
p3203
aVorg
p3204
aVorganic
p3205
aVorganisation
p3206
aVorganisations
p3207
aVorganised
p3208
aVorganiser
p3209
aVorganisers
p3210
aVorganization
p3211
aVorganizations
p3212
aVorganized
p3213
aVorientation
p3214
aVoriented
p3215
aVorigin
p3216
aVoriginal
p3217
aVoriginally
p3218
aVorlando
p3219
aVoro
p3220
aVoslo
p3221
aVothers
p3222
aVottawa
p3223
aVoutage
p3224
aVoutcome
p3225
aVoutdoor
p3226
aVoutlined
p3227
aVoutlines
p3228
aVoutlook
p3229
aVoutput
p3230
aVoutreach
p3231
aVoutside
p3232
aVoutstanding
p3233
aVoverall
p3234
aVovercome
p3235
aVoverflights
p3236
aVoverseas
p3237
aVoversee
p3238
aVoversight
p3239
aVoverview
p3240
aVowned
p3241
aVowner
p3242
aVowners
p3243
aVpace
p3244
aVpacific
p3245
aVpack
p3246
aVpackage
p3247
aVpackages
p3248
aVpacked
p3249
aVpage
p3250
aVpages
p3251
aVpaid
p3252
aVpair
p3253
aVpairs
p3254
aVpan
p3255
aVpanades
p3256
aVpanel
p3257
aVpanoramic
p3258
aVpansa
p3259
aVpaper
p3260
aVparadigm
p3261
aVparallel
p3262
aVparameters
p3263
aVparents
p3264
aVparis
p3265
aVpark
p3266
aVparking
p3267
aVpart
p3268
aVparticipant
p3269
aVparticipants
p3270
aVparticipate
p3271
aVparticipated
p3272
aVparticipating
p3273
aVparticipation
p3274
aVparticular
p3275
aVparticularly
p3276
aVparties
p3277
aVpartner
p3278
aVpartnered
p3279
aVpartnering
p3280
aVpartners
p3281
aVpartnership
p3282
aVpartnerships
p3283
aVparts
p3284
aVpass
p3285
aVpassage
p3286
aVpassed
p3287
aVpassenger
p3288
aVpassengers
p3289
aVpasses
p3290
aVpast
p3291
aVpath
p3292
aVpaths
p3293
aVpatrick
p3294
aVpatriotism
p3295
aVpatrol
p3296
aVpatronage
p3297
aVpatterns
p3298
aVpaul
p3299
aVpauline
p3300
aVpavilion
p3301
aVpavilions
p3302
aVpay
p3303
aVpaying
p3304
aVpayload
p3305
aVpayloads
p3306
aVpayment
p3307
aVpayments
p3308
aVpbn
p3309
aVpcp
p3310
aVpdf
p3311
aVpeace
p3312
aVpeak
p3313
aVpeer
p3314
aVpeninsula
p3315
aVpens
p3316
aVpeople
p3317
aVper
p3318
aVpercent
p3319
aVpercentage
p3320
aVperfect
p3321
aVperfectly
p3322
aVperform
p3323
aVperformance
p3324
aVperformed
p3325
aVperforming
p3326
aVperiod
p3327
aVperiods
p3328
aVpermanent
p3329
aVpermission
p3330
aVpermit
p3331
aVpermitted
p3332
aVperpetrators
p3333
aVperson
p3334
aVpersonal
p3335
aVpersonally
p3336
aVpersonnel
p3337
aVperspective
p3338
aVperspectives
p3339
aVperu
p3340
aVpet
p3341
aVpeter
p3342
aVpetty
p3343
aVphase
p3344
aVphased
p3345
aVphases
p3346
aVphiladelphia
p3347
aVphilosophy
p3348
aVphishing
p3349
aVphoenix
p3350
aVphone
p3351
aVphoto
p3352
aVphotos
p3353
aVphysical
p3354
aVpia
p3355
aVpicture
p3356
aVpiece
p3357
aVpillar
p3358
aVpilot
p3359
aVpiloted
p3360
aVpilots
p3361
aVping
p3362
aVpixel
p3363
aVplace
p3364
aVplaced
p3365
aVplaces
p3366
aVplain
p3367
aVplan
p3368
aVplane
p3369
aVplanet
p3370
aVplanned
p3371
aVplanning
p3372
aVplans
p3373
aVplatform
p3374
aVplatforms
p3375
aVplay
p3376
aVplayed
p3377
aVplayers
p3378
aVplaying
p3379
aVplays
p3380
aVplaza
p3381
aVplease
p3382
aVpleased
p3383
aVpledge
p3384
aVplus
p3385
aVplutonium
p3386
aVpm
p3387
aVpnnl
p3388
aVpoint
p3389
aVpoints
p3390
aVpoland
p3391
aVpolar
p3392
aVpolice
p3393
aVpolicies
p3394
aVpolicy
p3395
aVpolish
p3396
aVpolitical
p3397
aVpoole
p3398
aVpoor
p3399
aVpope
p3400
aVpopular
p3401
aVpopulation
p3402
aVport
p3403
aVportable
p3404
aVportal
p3405
aVportfolio
p3406
aVportion
p3407
aVportland
p3408
aVports
p3409
aVportugal
p3410
aVpose
p3411
aVposition
p3412
aVpositioned
p3413
aVpositions
p3414
aVpositive
p3415
aVpositively
p3416
aVpossibilities
p3417
aVpossibility
p3418
aVpossible
p3419
aVpost
p3420
aVposted
p3421
aVposts
p3422
aVpotential
p3423
aVpotentially
p3424
aVpower
p3425
aVpowerful
p3426
aVpowers
p3427
aVppd
p3428
aVpractical
p3429
aVpractice
p3430
aVpractices
p3431
aVpragmatic
p3432
aVprague
p3433
aVprc
p3434
aVpre
p3435
aVprecise
p3436
aVprecision
p3437
aVprecursor
p3438
aVpredict
p3439
aVpredictability
p3440
aVpredictable
p3441
aVpredicted
p3442
aVprediction
p3443
aVpredictions
p3444
aVpredictive
p3445
aVprefer
p3446
aVpreferred
p3447
aVpreliminary
p3448
aVpremier
p3449
aVpremise
p3450
aVpremises
p3451
aVpremium
p3452
aVpreparation
p3453
aVprepare
p3454
aVprepared
p3455
aVpreparedness
p3456
aVprepares
p3457
aVpreparing
p3458
aVpresence
p3459
aVpresent
p3460
aVpresentation
p3461
aVpresentations
p3462
aVpresented
p3463
aVpresenting
p3464
aVpresents
p3465
aVpresident
p3466
aVpresidential
p3467
aVpresidents
p3468
aVpress
p3469
aVpressing
p3470
aVpressure
p3471
aVpressures
p3472
aVprestigious
p3473
aVprestwick
p3474
aVprevent
p3475
aVpreventing
p3476
aVprevention
p3477
aVprevious
p3478
aVpreviously
p3479
aVprice
p3480
aVprices
p3481
aVpricing
p3482
aVpride
p3483
aVprimarily
p3484
aVprimary
p3485
aVprime
p3486
aVprinciples
p3487
aVprint
p3488
aVprinted
p3489
aVprior
p3490
aVpriorities
p3491
aVprioritize
p3492
aVprioritizes
p3493
aVprioritizing
p3494
aVpriority
p3495
aVprivacy
p3496
aVprivate
p3497
aVprivatization
p3498
aVprivilege
p3499
aVprm
p3500
aVproactive
p3501
aVproactively
p3502
aVproatn
p3503
aVproblem
p3504
aVproblems
p3505
aVprocedure
p3506
aVprocedures
p3507
aVprocess
p3508
aVprocessed
p3509
aVprocesses
p3510
aVprocessing
p3511
aVprocessor
p3512
aVprocurement
p3513
aVproduce
p3514
aVproduced
p3515
aVproducing
p3516
aVproduct
p3517
aVproduction
p3518
aVproductive
p3519
aVproductivity
p3520
aVproducts
p3521
aVprof
p3522
aVprofessional
p3523
aVprofessionalism
p3524
aVprofessionals
p3525
aVprofessor
p3526
aVproficiency
p3527
aVprofile
p3528
aVprofiles
p3529
aVprofit
p3530
aVprofitability
p3531
aVprofitable
p3532
aVprofits
p3533
aVprogram
p3534
aVprogramme
p3535
aVprogrammes
p3536
aVprograms
p3537
aVprogress
p3538
aVprogressive
p3539
aVprohibited
p3540
aVproject
p3541
aVprojected
p3542
aVprojections
p3543
aVprojects
p3544
aVprominent
p3545
aVpromise
p3546
aVpromising
p3547
aVpromote
p3548
aVpromoting
p3549
aVproof
p3550
aVproper
p3551
aVproperly
p3552
aVproperty
p3553
aVproposal
p3554
aVproposals
p3555
aVpropose
p3556
aVproposed
p3557
aVprosecution
p3558
aVprosperity
p3559
aVprotect
p3560
aVprotected
p3561
aVprotecting
p3562
aVprotection
p3563
aVprotectionism
p3564
aVprotections
p3565
aVprotective
p3566
aVprotects
p3567
aVprototype
p3568
aVproud
p3569
aVproudly
p3570
aVproven
p3571
aVprovide
p3572
aVprovided
p3573
aVprovider
p3574
aVproviders
p3575
aVprovides
p3576
aVproviding
p3577
aVproving
p3578
aVprovision
p3579
aVprovisional
p3580
aVprovisions
p3581
aVprr
p3582
aVpseudo
p3583
aVptt
p3584
aVpublic
p3585
aVpublication
p3586
aVpublish
p3587
aVpublished
p3588
aVpunctuality
p3589
aVpurchase
p3590
aVpurchasing
p3591
aVpurpose
p3592
aVpurposes
p3593
aVpursue
p3594
aVpursuing
p3595
aVpursuit
p3596
aVpush
p3597
aVput
p3598
aVputs
p3599
aVputting
p3600
aVqatar
p3601
aVqos
p3602
aVquadrant
p3603
aVqualification
p3604
aVqualified
p3605
aVqualify
p3606
aVquality
p3607
aVquart
p3608
aVquarter
p3609
aVqueen
p3610
aVquestion
p3611
aVquestions
p3612
aVquick
p3613
aVquickly
p3614
aVraaf
p3615
aVrace
p3616
aVradar
p3617
aVradars
p3618
aVradiation
p3619
aVradio
p3620
aVradioactive
p3621
aVradioisotope
p3622
aVradiological
p3623
aVradios
p3624
aVradius
p3625
aVradojica
p3626
aVrafale
p3627
aVrail
p3628
aVrailway
p3629
aVrailways
p3630
aVrain
p3631
aVrains
p3632
aVraise
p3633
aVraised
p3634
aVraising
p3635
aVralph
p3636
aVramadan
p3637
aVran
p3638
aVrange
p3639
aVranges
p3640
aVranging
p3641
aVransom
p3642
aVransomware
p3643
aVrapid
p3644
aVrapidly
p3645
aVraps
p3646
aVraptor
p3647
aVrare
p3648
aVrate
p3649
aVrates
p3650
aVrather
p3651
aVrating
p3652
aVrazors
p3653
aVrd
p3654
aVrdf
p3655
aVreach
p3656
aVreached
p3657
aVreaching
p3658
aVread
p3659
aVreadiness
p3660
aVready
p3661
aVreagan
p3662
aVreal
p3663
aVrealise
p3664
aVrealistic
p3665
aVreality
p3666
aVrealize
p3667
aVrealized
p3668
aVreally
p3669
aVrear
p3670
aVreason
p3671
aVreasons
p3672
aVrecat
p3673
aVreceive
p3674
aVreceived
p3675
aVreceiver
p3676
aVreceivers
p3677
aVreceives
p3678
aVreceiving
p3679
aVrecent
p3680
aVrecently
p3681
aVreception
p3682
aVrecession
p3683
aVrecipients
p3684
aVrecognise
p3685
aVrecognised
p3686
aVrecognises
p3687
aVrecognition
p3688
aVrecognize
p3689
aVrecognized
p3690
aVrecognizes
p3691
aVrecognizing
p3692
aVrecommend
p3693
aVrecommendation
p3694
aVrecommendations
p3695
aVrecommended
p3696
aVrecommends
p3697
aVrecord
p3698
aVrecorded
p3699
aVrecorders
p3700
aVrecording
p3701
aVrecover
p3702
aVrecovered
p3703
aVrecovery
p3704
aVrecreational
p3705
aVrecruit
p3706
aVrecruiting
p3707
aVrecruitment
p3708
aVred
p3709
aVredan
p3710
aVreduce
p3711
aVreduced
p3712
aVreduces
p3713
aVreducing
p3714
aVreduction
p3715
aVreductions
p3716
aVredundancy
p3717
aVredundant
p3718
aVreed
p3719
aVreese
p3720
aVrefer
p3721
aVreference
p3722
aVreferred
p3723
aVrefers
p3724
aVreflect
p3725
aVreflected
p3726
aVreflecting
p3727
aVreflects
p3728
aVreform
p3729
aVreforms
p3730
aVrefugee
p3731
aVrefugees
p3732
aVrefund
p3733
aVregard
p3734
aVregarding
p3735
aVregardless
p3736
aVregion
p3737
aVregional
p3738
aVregions
p3739
aVregister
p3740
aVregistered
p3741
aVregistration
p3742
aVregular
p3743
aVregulated
p3744
aVregulation
p3745
aVregulations
p3746
aVregulators
p3747
aVregulatory
p3748
aVreims
p3749
aVreinforce
p3750
aVreinforced
p3751
aVreiterated
p3752
aVrelated
p3753
aVrelating
p3754
aVrelation
p3755
aVrelationship
p3756
aVrelationships
p3757
aVrelative
p3758
aVrelatively
p3759
aVrelease
p3760
aVreleased
p3761
aVrelevance
p3762
aVrelevant
p3763
aVreliability
p3764
aVreliable
p3765
aVreliably
p3766
aVreliance
p3767
aVrelief
p3768
aVrelies
p3769
aVreligious
p3770
aVrelocation
p3771
aVrely
p3772
aVrelying
p3773
aVremain
p3774
aVremained
p3775
aVremaining
p3776
aVremains
p3777
aVremarkable
p3778
aVremarked
p3779
aVremarks
p3780
aVremember
p3781
aVreminded
p3782
aVreminder
p3783
aVremote
p3784
aVremotely
p3785
aVremove
p3786
aVremoved
p3787
aVrenewable
p3788
aVrenewal
p3789
aVrenewed
p3790
aVrenowned
p3791
aVreplace
p3792
aVreplacement
p3793
aVreplaces
p3794
aVreplacing
p3795
aVreplay
p3796
aVreport
p3797
aVreported
p3798
aVreporting
p3799
aVreports
p3800
aVrepresent
p3801
aVrepresentative
p3802
aVrepresentatives
p3803
aVrepresented
p3804
aVrepresenting
p3805
aVrepresents
p3806
aVrepublic
p3807
aVreputation
p3808
aVrequest
p3809
aVrequests
p3810
aVrequire
p3811
aVrequired
p3812
aVrequirement
p3813
aVrequirements
p3814
aVrequires
p3815
aVrequiring
p3816
aVrescue
p3817
aVresearch
p3818
aVresidents
p3819
aVresilience
p3820
aVresilient
p3821
aVresolution
p3822
aVresolve
p3823
aVresource
p3824
aVresources
p3825
aVrespect
p3826
aVrespective
p3827
aVrespectively
p3828
aVrespond
p3829
aVresponders
p3830
aVresponding
p3831
aVresponse
p3832
aVresponses
p3833
aVresponsibilities
p3834
aVresponsibility
p3835
aVresponsible
p3836
aVrest
p3837
aVrestrict
p3838
aVrestricted
p3839
aVrestrictions
p3840
aVrestructuring
p3841
aVresult
p3842
aVresulted
p3843
aVresulting
p3844
aVresults
p3845
aVretail
p3846
aVretain
p3847
aVretired
p3848
aVretirement
p3849
aVretrieve
p3850
aVreturn
p3851
aVreturned
p3852
aVreturning
p3853
aVreturns
p3854
aVrevenue
p3855
aVrevenues
p3856
aVreview
p3857
aVreviewed
p3858
aVreviews
p3859
aVrevised
p3860
aVrevision
p3861
aVrex
p3862
aVrhetoric
p3863
aVrich
p3864
aVriddle
p3865
aVright
p3866
aVrights
p3867
aVrigorous
p3868
aVrio
p3869
aVrise
p3870
aVrising
p3871
aVrisk
p3872
aVrisks
p3873
aVrk
p3874
aVrmcde
p3875
aVrms
p3876
aVrnsk
p3877
aVroad
p3878
aVroadmap
p3879
aVroads
p3880
aVrobert
p3881
aVrobust
p3882
aVrocket
p3883
aVrockwell
p3884
aVrodr
p3885
aVrohde
p3886
aVrole
p3887
aVroles
p3888
aVrolfe
p3889
aVroll
p3890
aVrolling
p3891
aVrollout
p3892
aVrome
p3893
aVroof
p3894
aVroom
p3895
aVrooms
p3896
aVroot
p3897
aVrose
p3898
aVrouge
p3899
aVround
p3900
aVroute
p3901
aVroutes
p3902
aVrouting
p3903
aVroutings
p3904
aVrov
p3905
aVrow
p3906
aVroyal
p3907
aVrpa
p3908
aVrpas
p3909
aVrpks
p3910
aVrpms
p3911
aVrsoos
p3912
aVrtc
p3913
aVrts
p3914
aVrule
p3915
aVrulemaking
p3916
aVrules
p3917
aVrun
p3918
aVrunning
p3919
aVruns
p3920
aVrunway
p3921
aVrunways
p3922
aVrussell
p3923
aVrussia
p3924
aVryanair
p3925
aVsaa
p3926
aVsaab
p3927
aVsacrifice
p3928
aVsacrificing
p3929
aVsaeed
p3930
aVsafe
p3931
aVsafeguard
p3932
aVsafeguarding
p3933
aVsafely
p3934
aVsafer
p3935
aVsafest
p3936
aVsafety
p3937
aVsaga
p3938
aVsagitario
p3939
aVsaid
p3940
aVsakaeronavigatsia
p3941
aVsales
p3942
aVsalt
p3943
aVsalvador
p3944
aVsamoa
p3945
aVsamples
p3946
aVsan
p3947
aVsanta
p3948
aVsar
p3949
aVsat
p3950
aVsatcom
p3951
aVsatcombw
p3952
aVsatellite
p3953
aVsatellites
p3954
aVsatisfaction
p3955
aVsatisfied
p3956
aVsatisfy
p3957
aVsaturated
p3958
aVsaturday
p3959
aVsaudi
p3960
aVsaunders
p3961
aVsave
p3962
aVsaved
p3963
aVsaving
p3964
aVsavings
p3965
aVsaw
p3966
aVsaxfra
p3967
aVsay
p3968
aVsays
p3969
aVsbas
p3970
aVscalable
p3971
aVscale
p3972
aVscanning
p3973
aVscaramella
p3974
aVscenario
p3975
aVscenarios
p3976
aVscene
p3977
aVscenes
p3978
aVschedule
p3979
aVscheduled
p3980
aVscheme
p3981
aVscheurle
p3982
aVscholarships
p3983
aVschool
p3984
aVschwarz
p3985
aVscience
p3986
aVscientific
p3987
aVscientists
p3988
aVscope
p3989
aVscott
p3990
aVscreen
p3991
aVscreened
p3992
aVscreening
p3993
aVscreens
p3994
aVsdds
p3995
aVsdi
p3996
aVsdm
p3997
aVse
p3998
aVsea
p3999
aVseafra
p4000
aVseal
p4001
aVseamless
p4002
aVseamlessly
p4003
aVseaports
p4004
aVsearch
p4005
aVsearches
p4006
aVsearidge
p4007
aVseas
p4008
aVseason
p4009
aVseasonal
p4010
aVseasonality
p4011
aVseasonally
p4012
aVseat
p4013
aVsecond
p4014
aVsecondary
p4015
aVseconds
p4016
aVsecret
p4017
aVsecretary
p4018
aVsection
p4019
aVsector
p4020
aVsectors
p4021
aVsecure
p4022
aVsecurely
p4023
aVsecuring
p4024
aVsecurity
p4025
aVsee
p4026
aVseeing
p4027
aVseek
p4028
aVseeking
p4029
aVseeks
p4030
aVseen
p4031
aVsees
p4032
aVsegment
p4033
aVsegments
p4034
aVsegregated
p4035
aVseized
p4036
aVseizures
p4037
aVselect
p4038
aVselected
p4039
aVselection
p4040
aVself
p4041
aVseminar
p4042
aVseminars
p4043
aVsemper
p4044
aVsenate
p4045
aVsenator
p4046
aVsend
p4047
aVsending
p4048
aVseneam
p4049
aVsenior
p4050
aVsennheiser
p4051
aVsense
p4052
aVsensing
p4053
aVsensitive
p4054
aVsensor
p4055
aVsensors
p4056
aVsent
p4057
aVseparate
p4058
aVseparated
p4059
aVseparating
p4060
aVseparation
p4061
aVseparations
p4062
aVsept
p4063
aVseptember
p4064
aVsequence
p4065
aVserbia
p4066
aVseries
p4067
aVserious
p4068
aVseriously
p4069
aVservants
p4070
aVserve
p4071
aVserved
p4072
aVserver
p4073
aVserves
p4074
aVservice
p4075
aVservices
p4076
aVserving
p4077
aVses
p4078
aVsesar
p4079
aVsession
p4080
aVsessions
p4081
aVset
p4082
aVsets
p4083
aVsetting
p4084
aVseven
p4085
aVseveral
p4086
aVsevere
p4087
aVsfo
p4088
aVshadow
p4089
aVshadows
p4090
aVshannon
p4091
aVshape
p4092
aVshaped
p4093
aVshaping
p4094
aVshare
p4095
aVshared
p4096
aVsharing
p4097
aVsharon
p4098
aVsharply
p4099
aVsheet
p4100
aVsheikh
p4101
aVshelter
p4102
aVshelters
p4103
aVsheriff
p4104
aVshift
p4105
aVshifting
p4106
aVship
p4107
aVshipped
p4108
aVshock
p4109
aVshocks
p4110
aVshoes
p4111
aVshooter
p4112
aVshopping
p4113
aVshoreham
p4114
aVshort
p4115
aVshorter
p4116
aVshortlisted
p4117
aVshortly
p4118
aVshot
p4119
aVshow
p4120
aVshowcase
p4121
aVshowcased
p4122
aVshowcasing
p4123
aVshowed
p4124
aVshowing
p4125
aVshown
p4126
aVshows
p4127
aVshrunk
p4128
aVside
p4129
aVsight
p4130
aVsigma
p4131
aVsign
p4132
aVsignal
p4133
aVsignalling
p4134
aVsignals
p4135
aVsignature
p4136
aVsignatures
p4137
aVsigned
p4138
aVsignificant
p4139
aVsignificantly
p4140
aVsigning
p4141
aVsigns
p4142
aVsilicon
p4143
aVsimilar
p4144
aVsimple
p4145
aVsimply
p4146
aVsims
p4147
aVsimulate
p4148
aVsimulated
p4149
aVsimulation
p4150
aVsimulator
p4151
aVsimulators
p4152
aVsimultaneous
p4153
aVsimultaneously
p4154
aVsince
p4155
aVsingapore
p4156
aVsingle
p4157
aVsir
p4158
aVsita
p4159
aVsitaonair
p4160
aVsite
p4161
aVsites
p4162
aVsitti
p4163
aVsituation
p4164
aVsituational
p4165
aVsituations
p4166
aVsix
p4167
aVsize
p4168
aVsized
p4169
aVsizes
p4170
aVskies
p4171
aVskilled
p4172
aVskills
p4173
aVskin
p4174
aVsky
p4175
aVskyguide
p4176
aVskysense
p4177
aVskysoft
p4178
aVsla
p4179
aVslavery
p4180
aVslight
p4181
aVslightly
p4182
aVslip
p4183
aVslot
p4184
aVslovakia
p4185
aVslovenia
p4186
aVslovenian
p4187
aVslow
p4188
aVslowed
p4189
aVslower
p4190
aVsmall
p4191
aVsmaller
p4192
aVsmallest
p4193
aVsmart
p4194
aVsmarter
p4195
aVsmartphones
p4196
aVsmartstrips
p4197
aVsmarttools
p4198
aVsmartvision
p4199
aVsmatsa
p4200
aVsmell
p4201
aVsmgcs
p4202
aVsmith
p4203
aVsmooth
p4204
aVsmoother
p4205
aVsmugglers
p4206
aVsmuggling
p4207
aVsnow
p4208
aVsnowflake
p4209
aVsocial
p4210
aVsociety
p4211
aVsoe
p4212
aVsoftware
p4213
aVsold
p4214
aVsoldier
p4215
aVsolely
p4216
aVsolid
p4217
aVsolidarity
p4218
aVsolution
p4219
aVsolutions
p4220
aVsolve
p4221
aVsolved
p4222
aVsolving
p4223
aVsomeone
p4224
aVsomething
p4225
aVsometimes
p4226
aVson
p4227
aVsoon
p4228
aVsophisticated
p4229
aVsorter
p4230
aVsorting
p4231
aVsound
p4232
aVsounds
p4233
aVsoup
p4234
aVsource
p4235
aVsources
p4236
aVsourcing
p4237
aVsouth
p4238
aVsoutheast
p4239
aVsouthern
p4240
aVsouthwest
p4241
aVspace
p4242
aVspacex
p4243
aVspain
p4244
aVspanish
p4245
aVspans
p4246
aVspares
p4247
aVspeak
p4248
aVspeaking
p4249
aVspecial
p4250
aVspecialised
p4251
aVspecialist
p4252
aVspecialists
p4253
aVspecialized
p4254
aVspecially
p4255
aVspecific
p4256
aVspecifically
p4257
aVspecifications
p4258
aVspecify
p4259
aVspectrum
p4260
aVspeech
p4261
aVspeed
p4262
aVspend
p4263
aVspent
p4264
aVspirit
p4265
aVsplit
p4266
aVspoke
p4267
aVsponsors
p4268
aVspot
p4269
aVspread
p4270
aVsprint
p4271
aVsq
p4272
aVsquare
p4273
aVsquarehead
p4274
aVsr
p4275
aVssiller
p4276
aVssr
p4277
aVst
p4278
aVstability
p4279
aVstable
p4280
aVstadium
p4281
aVstaff
p4282
aVstage
p4283
aVstages
p4284
aVstakeholder
p4285
aVstakeholders
p4286
aVstand
p4287
aVstandard
p4288
aVstandardisation
p4289
aVstandards
p4290
aVstanding
p4291
aVstands
p4292
aVstar
p4293
aVstars
p4294
aVstart
p4295
aVstarted
p4296
aVstarting
p4297
aVstartup
p4298
aVstartups
p4299
aVstate
p4300
aVstated
p4301
aVstatement
p4302
aVstates
p4303
aVstatic
p4304
aVstation
p4305
aVstations
p4306
aVstatistics
p4307
aVstatus
p4308
aVstay
p4309
aVsteady
p4310
aVsteal
p4311
aVsteering
p4312
aVstem
p4313
aVstep
p4314
aVstephen
p4315
aVsteps
p4316
aVstill
p4317
aVstimulate
p4318
aVstock
p4319
aVstockholm
p4320
aVstood
p4321
aVstop
p4322
aVstopthinkconnect
p4323
aVstories
p4324
aVstorm
p4325
aVstory
p4326
aVstrategic
p4327
aVstrategies
p4328
aVstrategy
p4329
aVstream
p4330
aVstreaming
p4331
aVstreamline
p4332
aVstreamlined
p4333
aVstrength
p4334
aVstrengthen
p4335
aVstrengthened
p4336
aVstrengthening
p4337
aVstrengthens
p4338
aVstrengths
p4339
aVstress
p4340
aVstressed
p4341
aVstressful
p4342
aVstrides
p4343
aVstrike
p4344
aVstringent
p4345
aVstrip
p4346
aVstrips
p4347
aVstrong
p4348
aVstronger
p4349
aVstrongest
p4350
aVstrongly
p4351
aVstructural
p4352
aVstructure
p4353
aVstructures
p4354
aVstudent
p4355
aVstudents
p4356
aVstudies
p4357
aVstudy
p4358
aVstudying
p4359
aVstuttgart
p4360
aVsub
p4361
aVsubject
p4362
aVsubmit
p4363
aVsubmitted
p4364
aVsubsequent
p4365
aVsubsidiary
p4366
aVsubstantial
p4367
aVsubstantially
p4368
aVsucceed
p4369
aVsuccess
p4370
aVsuccesses
p4371
aVsuccessful
p4372
aVsuccessfully
p4373
aVsuffered
p4374
aVsufficient
p4375
aVsuggests
p4376
aVsuitable
p4377
aVsuite
p4378
aVsuited
p4379
aVsultana
p4380
aVsum
p4381
aVsummary
p4382
aVsummer
p4383
aVsummit
p4384
aVsun
p4385
aVsunday
p4386
aVsundsvall
p4387
aVsuper
p4388
aVsuperior
p4389
aVsupervision
p4390
aVsupervisor
p4391
aVsupervisory
p4392
aVsupplement
p4393
aVsupplied
p4394
aVsupplier
p4395
aVsuppliers
p4396
aVsupplies
p4397
aVsupply
p4398
aVsupplying
p4399
aVsupport
p4400
aVsupported
p4401
aVsupporting
p4402
aVsupports
p4403
aVsupreme
p4404
aVsure
p4405
aVsureselect
p4406
aVsurface
p4407
aVsurge
p4408
aVsurveillance
p4409
aVsurvey
p4410
aVsurveys
p4411
aVsuspected
p4412
aVsuspicious
p4413
aVsustainability
p4414
aVsustainable
p4415
aVsustained
p4416
aVswanwick
p4417
aVswaziland
p4418
aVswedavia
p4419
aVsweden
p4420
aVswedish
p4421
aVswiftbroadband
p4422
aVswim
p4423
aVswiss
p4424
aVswitch
p4425
aVswitching
p4426
aVswitzerland
p4427
aVsydney
p4428
aVsynchronised
p4429
aVsynergies
p4430
aVsynthetic
p4431
aVsyria
p4432
aVsyrian
p4433
aVsys
p4434
aVsystem
p4435
aVsystems
p4436
aVtaam
p4437
aVtabletop
p4438
aVtablets
p4439
aVtackle
p4440
aVtactical
p4441
aVtactics
p4442
aVtailored
p4443
aVtajikistan
p4444
aVtake
p4445
aVtaken
p4446
aVtakeoff
p4447
aVtakes
p4448
aVtaking
p4449
aVtalent
p4450
aVtalented
p4451
aVtalk
p4452
aVtalking
p4453
aVtalks
p4454
aVtall
p4455
aVtaller
p4456
aVtan
p4457
aVtangible
p4458
aVtap
p4459
aVtape
p4460
aVtarget
p4461
aVtargeted
p4462
aVtargeting
p4463
aVtargets
p4464
aVtask
p4465
aVtasks
p4466
aVtax
p4467
aVtaxes
p4468
aVtaxi
p4469
aVtaxiways
p4470
aVtaxpayer
p4471
aVtbs
p4472
aVteaching
p4473
aVteam
p4474
aVteams
p4475
aVtech
p4476
aVtechnical
p4477
aVtechnically
p4478
aVtechnicians
p4479
aVtechniques
p4480
aVtechnobrain
p4481
aVtechnological
p4482
aVtechnologies
p4483
aVtechnology
p4484
aVtelecommunication
p4485
aVtelecommunications
p4486
aVtelekom
p4487
aVtelephone
p4488
aVtell
p4489
aVteltech
p4490
aVtemperature
p4491
aVtemporary
p4492
aVten
p4493
aVtender
p4494
aVtendering
p4495
aVtenente
p4496
aVtentative
p4497
aVterm
p4498
aVterminal
p4499
aVterminals
p4500
aVterms
p4501
aVterrain
p4502
aVterrestrial
p4503
aVterrible
p4504
aVterrific
p4505
aVterritorial
p4506
aVterritory
p4507
aVterrorism
p4508
aVterrorist
p4509
aVterrorists
p4510
aVterry
p4511
aVtest
p4512
aVtestament
p4513
aVtested
p4514
aVtesting
p4515
aVtests
p4516
aVtexas
p4517
aVtext
p4518
aVtfdm
p4519
aVth
p4520
aVthales
p4521
aVthank
p4522
aVthanked
p4523
aVthanks
p4524
aVthanksgiving
p4525
aVtheft
p4526
aVtheme
p4527
aVthereby
p4528
aVtherefore
p4529
aVthing
p4530
aVthings
p4531
aVthink
p4532
aVthinking
p4533
aVthird
p4534
aVthomas
p4535
aVthoroughly
p4536
aVthough
p4537
aVthoughts
p4538
aVthousands
p4539
aVthreat
p4540
aVthreaten
p4541
aVthreats
p4542
aVthree
p4543
aVthrive
p4544
aVthroughout
p4545
aVthroughput
p4546
aVthunderstorm
p4547
aVthunderstorms
p4548
aVthursday
p4549
aVthus
p4550
aVtight
p4551
aVtillerson
p4552
aVtime
p4553
aVtimed
p4554
aVtimely
p4555
aVtimes
p4556
aVtip
p4557
aVtips
p4558
aVtirelessly
p4559
aVtma
p4560
aVtoday
p4561
aVtogether
p4562
aVtokyo
p4563
aVtold
p4564
aVtolerance
p4565
aVtoll
p4566
aVtomb
p4567
aVtomorrow
p4568
aVtonga
p4569
aVtonight
p4570
aVtonne
p4571
aVtonnes
p4572
aVtons
p4573
aVtony
p4574
aVtook
p4575
aVtool
p4576
aVtoolkit
p4577
aVtools
p4578
aVtop
p4579
aVtopic
p4580
aVtopics
p4581
aVtopsky
p4582
aVtosim
p4583
aVtotal
p4584
aVtotally
p4585
aVtouch
p4586
aVtoulouse
p4587
aVtour
p4588
aVtourniquet
p4589
aVtoward
p4590
aVtowards
p4591
aVtower
p4592
aVtowers
p4593
aVtown
p4594
aVtrack
p4595
aVtracker
p4596
aVtracking
p4597
aVtracks
p4598
aVtracon
p4599
aVtracons
p4600
aVtrade
p4601
aVtrading
p4602
aVtradition
p4603
aVtraditional
p4604
aVtraffic
p4605
aVtraffickers
p4606
aVtrafficking
p4607
aVtrain
p4608
aVtrained
p4609
aVtrainer
p4610
aVtraining
p4611
aVtrajectories
p4612
aVtrajectory
p4613
aVtrans
p4614
aVtransaction
p4615
aVtransfer
p4616
aVtransferred
p4617
aVtransform
p4618
aVtransformation
p4619
aVtransforming
p4620
aVtransforms
p4621
aVtransit
p4622
aVtransition
p4623
aVtransitioning
p4624
aVtranslated
p4625
aVtransmission
p4626
aVtransmissions
p4627
aVtransmit
p4628
aVtransmitting
p4629
aVtransparency
p4630
aVtransparent
p4631
aVtransponder
p4632
aVtransport
p4633
aVtransportation
p4634
aVtransported
p4635
aVtrapac
p4636
aVtravel
p4637
aVtraveled
p4638
aVtraveler
p4639
aVtravelers
p4640
aVtraveling
p4641
aVtravellers
p4642
aVtravelling
p4643
aVtreat
p4644
aVtremendous
p4645
aVtrend
p4646
aVtrends
p4647
aVtrent
p4648
aVtrial
p4649
aVtrials
p4650
aVtriangle
p4651
aVtribal
p4652
aVtribunal
p4653
aVtribute
p4654
aVtried
p4655
aVtrinidad
p4656
aVtrip
p4657
aVtripwire
p4658
aVtrue
p4659
aVtruly
p4660
aVtrust
p4661
aVtrusted
p4662
aVtry
p4663
aVtsa
p4664
aVtsl
p4665
aVtta
p4666
aVtuesday
p4667
aVtuning
p4668
aVturbulence
p4669
aVturin
p4670
aVturkey
p4671
aVturkish
p4672
aVturn
p4673
aVturning
p4674
aVtwitter
p4675
aVtwo
p4676
aVtyler
p4677
aVtype
p4678
aVtypes
p4679
aVtypical
p4680
aVtypically
p4681
aVtyree
p4682
aVuac
p4683
aVuae
p4684
aVuas
p4685
aVuast
p4686
aVuav
p4687
aVuavs
p4688
aVufa
p4689
aVuhf
p4690
aVuk
p4691
aVukraine
p4692
aVukrainian
p4693
aVulaanbaatar
p4694
aVultimate
p4695
aVultimately
p4696
aVun
p4697
aVunable
p4698
aVunauthorized
p4699
aVuncertainty
p4700
aVuncompressed
p4701
aVuncontrolled
p4702
aVundergo
p4703
aVundergoing
p4704
aVunderlines
p4705
aVunderlying
p4706
aVunderpin
p4707
aVunderpinning
p4708
aVunderstand
p4709
aVunderstanding
p4710
aVundertaken
p4711
aVundertaking
p4712
aVunderway
p4713
aVunified
p4714
aVunifly
p4715
aVuniform
p4716
aVunion
p4717
aVunique
p4718
aVuniquely
p4719
aVunit
p4720
aVunited
p4721
aVunits
p4722
aVunity
p4723
aVuniversidad
p4724
aVuniversities
p4725
aVuniversity
p4726
aVunlikely
p4727
aVunlock
p4728
aVunmanned
p4729
aVunmatched
p4730
aVunparalleled
p4731
aVunprecedented
p4732
aVunsafe
p4733
aVunveiled
p4734
aVupcoming
p4735
aVupct
p4736
aVupdate
p4737
aVupdated
p4738
aVupdates
p4739
aVupdating
p4740
aVupgrade
p4741
aVupgraded
p4742
aVupgrades
p4743
aVupgrading
p4744
aVuphold
p4745
aVupon
p4746
aVupper
p4747
aVups
p4748
aVuptick
p4749
aVupturn
p4750
aVupwards
p4751
aVurban
p4752
aVurge
p4753
aVurged
p4754
aVurgent
p4755
aVus
p4756
aVusa
p4757
aVusage
p4758
aVuscg
p4759
aVuscis
p4760
aVuse
p4761
aVused
p4762
aVuseful
p4763
aVuser
p4764
aVusers
p4765
aVuses
p4766
aVusing
p4767
aVusss
p4768
aVusual
p4769
aVusually
p4770
aVutica
p4771
aVutilisation
p4772
aVutilise
p4773
aVutilised
p4774
aVutilising
p4775
aVutilization
p4776
aVutilize
p4777
aVutilized
p4778
aVutilizes
p4779
aVutilizing
p4780
aVutm
p4781
aVuwe
p4782
aVvacancies
p4783
aVvacation
p4784
aVvaissiere
p4785
aVvalidate
p4786
aVvalidated
p4787
aVvalidating
p4788
aVvalidation
p4789
aVvalley
p4790
aVvalor
p4791
aVvaluable
p4792
aVvalue
p4793
aVvalued
p4794
aVvalues
p4795
aVvan
p4796
aVvandenberg
p4797
aVvariability
p4798
aVvariations
p4799
aVvariety
p4800
aVvarious
p4801
aVvast
p4802
aVvatm
p4803
aVvccs
p4804
aVvcs
p4805
aVvehicle
p4806
aVvehicles
p4807
aVvenezuela
p4808
aVventure
p4809
aVvenue
p4810
aVverification
p4811
aVverified
p4812
aVverify
p4813
aVversion
p4814
aVvertical
p4815
aVvessel
p4816
aVveteran
p4817
aVveterans
p4818
aVvhf
p4819
aVvia
p4820
aVviable
p4821
aVvice
p4822
aVvicinity
p4823
aVvictim
p4824
aVvictims
p4825
aVvidegaray
p4826
aVvideo
p4827
aVvideos
p4828
aVvienna
p4829
aVvietnam
p4830
aVview
p4831
aVviewed
p4832
aVviews
p4833
aVvigil
p4834
aVvigilance
p4835
aVvigilant
p4836
aVvimeo
p4837
aVvincent
p4838
aVvinny
p4839
aVviolence
p4840
aVviolent
p4841
aVvioleta
p4842
aVvirgin
p4843
aVvirginia
p4844
aVvirtual
p4845
aVvisa
p4846
aVvisibility
p4847
aVvisible
p4848
aVvision
p4849
aVvisit
p4850
aVvisited
p4851
aVvisiting
p4852
aVvisitors
p4853
aVvisits
p4854
aVvisual
p4855
aVvisually
p4856
aVvital
p4857
aVvitalsphere
p4858
aVvoice
p4859
aVvoip
p4860
aVvolpe
p4861
aVvolume
p4862
aVvolumes
p4863
aVvoluntary
p4864
aVvolunteer
p4865
aVvolunteered
p4866
aVvolunteers
p4867
aVvote
p4868
aVvs
p4869
aVvulnerabilities
p4870
aVvulnerability
p4871
aVvulnerable
p4872
aVwait
p4873
aVwaiting
p4874
aVwake
p4875
aVwalked
p4876
aVwalking
p4877
aVwall
p4878
aVwam
p4879
aVwant
p4880
aVwanted
p4881
aVwants
p4882
aVwar
p4883
aVwarfare
p4884
aVwarning
p4885
aVwarton
p4886
aVwashington
p4887
aVwassmer
p4888
aVwatch
p4889
aVwatching
p4890
aVwater
p4891
aVwatt
p4892
aVwave
p4893
aVway
p4894
aVwaypoints
p4895
aVways
p4896
aVwcg
p4897
aVweak
p4898
aVweakness
p4899
aVweapon
p4900
aVweapons
p4901
aVwearing
p4902
aVweather
p4903
aVweb
p4904
aVwebpage
p4905
aVwebsite
p4906
aVwebsites
p4907
aVwednesday
p4908
aVweek
p4909
aVweekdays
p4910
aVweekend
p4911
aVweekends
p4912
aVweeks
p4913
aVweighing
p4914
aVweight
p4915
aVwelcome
p4916
aVwelcomed
p4917
aVwelcoming
p4918
aVwell
p4919
aVwellington
p4920
aVwent
p4921
aVwest
p4922
aVwestern
p4923
aVwherever
p4924
aVwhether
p4925
aVwhilst
p4926
aVwhite
p4927
aVwhole
p4928
aVwhose
p4929
aVwide
p4930
aVwidely
p4931
aVwider
p4932
aVwidespread
p4933
aVwilliam
p4934
aVwilliams
p4935
aVwilling
p4936
aVwillingness
p4937
aVwilson
p4938
aVwin
p4939
aVwind
p4940
aVwindcube
p4941
aVwindows
p4942
aVwinds
p4943
aVwinner
p4944
aVwinners
p4945
aVwinning
p4946
aVwish
p4947
aVwishes
p4948
aVwithin
p4949
aVwithout
p4950
aVwitnessed
p4951
aVwolfe
p4952
aVwomen
p4953
aVwoodrow
p4954
aVword
p4955
aVwords
p4956
aVwork
p4957
aVworked
p4958
aVworkers
p4959
aVworkflow
p4960
aVworkflows
p4961
aVworkforce
p4962
aVworking
p4963
aVworkload
p4964
aVworkplace
p4965
aVworks
p4966
aVworkshop
p4967
aVworkshops
p4968
aVworkstation
p4969
aVworkstations
p4970
aVworld
p4971
aVworldwide
p4972
aVworry
p4973
aVworst
p4974
aVworth
p4975
aVwould
p4976
aVwreath
p4977
aVwriting
p4978
aVwrong
p4979
aVwut
p4980
aVwww
p4981
aVxml
p4982
aVxpeller
p4983
aVyear
p4984
aVyearly
p4985
aVyears
p4986
aVyesterday
p4987
aVyet
p4988
aVyields
p4989
aVyork
p4990
aVyoung
p4991
aVyouth
p4992
aVzagreb
p4993
aVzealand
p4994
aVzero
p4995
aVzip
p4996
aVzone
p4997
aVzones
p4998
aVzoom
p4999
aVzurich
p5000
a.